
whetstone.elf:     file format elf32-littleriscv


Disassembly of section .text:

01000000 <_start>:
 1000000:	00020117          	auipc	sp,0x20
 1000004:	00010113          	mv	sp,sp
 1000008:	00008297          	auipc	t0,0x8
 100000c:	b0028293          	addi	t0,t0,-1280 # 1007b08 <E1>
 1000010:	00008317          	auipc	t1,0x8
 1000014:	c8030313          	addi	t1,t1,-896 # 1007c90 <L>
 1000018:	00c0006f          	j	1000024 <bss_check>

0100001c <bss_loop>:
 100001c:	0002a023          	sw	zero,0(t0)
 1000020:	00428293          	addi	t0,t0,4

01000024 <bss_check>:
 1000024:	fe62ece3          	bltu	t0,t1,100001c <bss_loop>
 1000028:	00008297          	auipc	t0,0x8
 100002c:	ca828293          	addi	t0,t0,-856 # 1007cd0 <__heap_start>
 1000030:	00009317          	auipc	t1,0x9
 1000034:	ca030313          	addi	t1,t1,-864 # 1008cd0 <__heap_end>
 1000038:	00c0006f          	j	1000044 <heap_check>

0100003c <heap_loop>:
 100003c:	0002a023          	sw	zero,0(t0)
 1000040:	00428293          	addi	t0,t0,4

01000044 <heap_check>:
 1000044:	fe62ece3          	bltu	t0,t1,100003c <heap_loop>
 1000048:	7ac030ef          	jal	10037f4 <main>
 100004c:	00007517          	auipc	a0,0x7
 1000050:	18c50513          	addi	a0,a0,396 # 10071d8 <hello_string>
 1000054:	fadff06f          	j	1000000 <_start>

01000058 <PA>:
 1000058:	fb010113          	addi	sp,sp,-80 # 101ffb0 <__stack_start+0x7b0>
 100005c:	03a12023          	sw	s10,32(sp)
 1000060:	01b12e23          	sw	s11,28(sp)
 1000064:	01052d03          	lw	s10,16(a0)
 1000068:	01452d83          	lw	s11,20(a0)
 100006c:	00050793          	mv	a5,a0
 1000070:	00852603          	lw	a2,8(a0)
 1000074:	00c52683          	lw	a3,12(a0)
 1000078:	03612823          	sw	s6,48(sp)
 100007c:	03712623          	sw	s7,44(sp)
 1000080:	0187ab03          	lw	s6,24(a5)
 1000084:	01c7ab83          	lw	s7,28(a5)
 1000088:	01008837          	lui	a6,0x1008
 100008c:	01008737          	lui	a4,0x1008
 1000090:	000d0513          	mv	a0,s10
 1000094:	000d8593          	mv	a1,s11
 1000098:	04112623          	sw	ra,76(sp)
 100009c:	00f12623          	sw	a5,12(sp)
 10000a0:	04812423          	sw	s0,72(sp)
 10000a4:	04912223          	sw	s1,68(sp)
 10000a8:	cb082403          	lw	s0,-848(a6) # 1007cb0 <T>
 10000ac:	cb482483          	lw	s1,-844(a6)
 10000b0:	05212023          	sw	s2,64(sp)
 10000b4:	03312e23          	sw	s3,60(sp)
 10000b8:	ca072903          	lw	s2,-864(a4) # 1007ca0 <T2>
 10000bc:	ca472983          	lw	s3,-860(a4)
 10000c0:	03412c23          	sw	s4,56(sp)
 10000c4:	03512a23          	sw	s5,52(sp)
 10000c8:	0207aa03          	lw	s4,32(a5)
 10000cc:	0247aa83          	lw	s5,36(a5)
 10000d0:	03812423          	sw	s8,40(sp)
 10000d4:	03912223          	sw	s9,36(sp)
 10000d8:	689000ef          	jal	1000f60 <__adddf3>
 10000dc:	000b0613          	mv	a2,s6
 10000e0:	000b8693          	mv	a3,s7
 10000e4:	67d000ef          	jal	1000f60 <__adddf3>
 10000e8:	000a0613          	mv	a2,s4
 10000ec:	000a8693          	mv	a3,s5
 10000f0:	650020ef          	jal	1002740 <__subdf3>
 10000f4:	00040613          	mv	a2,s0
 10000f8:	00048693          	mv	a3,s1
 10000fc:	7a9010ef          	jal	10020a4 <__muldf3>
 1000100:	00050c13          	mv	s8,a0
 1000104:	00058c93          	mv	s9,a1
 1000108:	00050613          	mv	a2,a0
 100010c:	00058693          	mv	a3,a1
 1000110:	000d0513          	mv	a0,s10
 1000114:	000d8593          	mv	a1,s11
 1000118:	649000ef          	jal	1000f60 <__adddf3>
 100011c:	000b0613          	mv	a2,s6
 1000120:	000b8693          	mv	a3,s7
 1000124:	61c020ef          	jal	1002740 <__subdf3>
 1000128:	000a0613          	mv	a2,s4
 100012c:	000a8693          	mv	a3,s5
 1000130:	631000ef          	jal	1000f60 <__adddf3>
 1000134:	00040613          	mv	a2,s0
 1000138:	00048693          	mv	a3,s1
 100013c:	769010ef          	jal	10020a4 <__muldf3>
 1000140:	00050d13          	mv	s10,a0
 1000144:	00058d93          	mv	s11,a1
 1000148:	00050613          	mv	a2,a0
 100014c:	00058693          	mv	a3,a1
 1000150:	000c0513          	mv	a0,s8
 1000154:	000c8593          	mv	a1,s9
 1000158:	5e8020ef          	jal	1002740 <__subdf3>
 100015c:	000b0613          	mv	a2,s6
 1000160:	000b8693          	mv	a3,s7
 1000164:	5fd000ef          	jal	1000f60 <__adddf3>
 1000168:	000a0613          	mv	a2,s4
 100016c:	000a8693          	mv	a3,s5
 1000170:	5f1000ef          	jal	1000f60 <__adddf3>
 1000174:	00040613          	mv	a2,s0
 1000178:	00048693          	mv	a3,s1
 100017c:	729010ef          	jal	10020a4 <__muldf3>
 1000180:	00050b13          	mv	s6,a0
 1000184:	00058b93          	mv	s7,a1
 1000188:	000c0613          	mv	a2,s8
 100018c:	000c8693          	mv	a3,s9
 1000190:	000d0513          	mv	a0,s10
 1000194:	000d8593          	mv	a1,s11
 1000198:	5a8020ef          	jal	1002740 <__subdf3>
 100019c:	000b0613          	mv	a2,s6
 10001a0:	000b8693          	mv	a3,s7
 10001a4:	5bd000ef          	jal	1000f60 <__adddf3>
 10001a8:	000a0613          	mv	a2,s4
 10001ac:	000a8693          	mv	a3,s5
 10001b0:	5b1000ef          	jal	1000f60 <__adddf3>
 10001b4:	00090613          	mv	a2,s2
 10001b8:	00098693          	mv	a3,s3
 10001bc:	4f0010ef          	jal	10016ac <__divdf3>
 10001c0:	00050a13          	mv	s4,a0
 10001c4:	00058a93          	mv	s5,a1
 10001c8:	000c0613          	mv	a2,s8
 10001cc:	000c8693          	mv	a3,s9
 10001d0:	000d0513          	mv	a0,s10
 10001d4:	000d8593          	mv	a1,s11
 10001d8:	589000ef          	jal	1000f60 <__adddf3>
 10001dc:	000b0613          	mv	a2,s6
 10001e0:	000b8693          	mv	a3,s7
 10001e4:	57d000ef          	jal	1000f60 <__adddf3>
 10001e8:	000a0613          	mv	a2,s4
 10001ec:	000a8693          	mv	a3,s5
 10001f0:	550020ef          	jal	1002740 <__subdf3>
 10001f4:	00040613          	mv	a2,s0
 10001f8:	00048693          	mv	a3,s1
 10001fc:	6a9010ef          	jal	10020a4 <__muldf3>
 1000200:	000d0613          	mv	a2,s10
 1000204:	000d8693          	mv	a3,s11
 1000208:	00a12023          	sw	a0,0(sp)
 100020c:	00b12223          	sw	a1,4(sp)
 1000210:	551000ef          	jal	1000f60 <__adddf3>
 1000214:	000b0613          	mv	a2,s6
 1000218:	000b8693          	mv	a3,s7
 100021c:	524020ef          	jal	1002740 <__subdf3>
 1000220:	000a0613          	mv	a2,s4
 1000224:	000a8693          	mv	a3,s5
 1000228:	539000ef          	jal	1000f60 <__adddf3>
 100022c:	00040613          	mv	a2,s0
 1000230:	00048693          	mv	a3,s1
 1000234:	671010ef          	jal	10020a4 <__muldf3>
 1000238:	00012d03          	lw	s10,0(sp)
 100023c:	00412d83          	lw	s11,4(sp)
 1000240:	00050c13          	mv	s8,a0
 1000244:	00058c93          	mv	s9,a1
 1000248:	00050613          	mv	a2,a0
 100024c:	00058693          	mv	a3,a1
 1000250:	000d0513          	mv	a0,s10
 1000254:	000d8593          	mv	a1,s11
 1000258:	4e8020ef          	jal	1002740 <__subdf3>
 100025c:	000b0613          	mv	a2,s6
 1000260:	000b8693          	mv	a3,s7
 1000264:	4fd000ef          	jal	1000f60 <__adddf3>
 1000268:	000a0613          	mv	a2,s4
 100026c:	000a8693          	mv	a3,s5
 1000270:	4f1000ef          	jal	1000f60 <__adddf3>
 1000274:	00040613          	mv	a2,s0
 1000278:	00048693          	mv	a3,s1
 100027c:	629010ef          	jal	10020a4 <__muldf3>
 1000280:	00050b13          	mv	s6,a0
 1000284:	00058b93          	mv	s7,a1
 1000288:	000d0613          	mv	a2,s10
 100028c:	000d8693          	mv	a3,s11
 1000290:	000c0513          	mv	a0,s8
 1000294:	000c8593          	mv	a1,s9
 1000298:	4a8020ef          	jal	1002740 <__subdf3>
 100029c:	000b0613          	mv	a2,s6
 10002a0:	000b8693          	mv	a3,s7
 10002a4:	4bd000ef          	jal	1000f60 <__adddf3>
 10002a8:	000a0613          	mv	a2,s4
 10002ac:	000a8693          	mv	a3,s5
 10002b0:	4b1000ef          	jal	1000f60 <__adddf3>
 10002b4:	00090613          	mv	a2,s2
 10002b8:	00098693          	mv	a3,s3
 10002bc:	3f0010ef          	jal	10016ac <__divdf3>
 10002c0:	00050a13          	mv	s4,a0
 10002c4:	00058a93          	mv	s5,a1
 10002c8:	000d0613          	mv	a2,s10
 10002cc:	000d8693          	mv	a3,s11
 10002d0:	000c0513          	mv	a0,s8
 10002d4:	000c8593          	mv	a1,s9
 10002d8:	489000ef          	jal	1000f60 <__adddf3>
 10002dc:	000b0613          	mv	a2,s6
 10002e0:	000b8693          	mv	a3,s7
 10002e4:	47d000ef          	jal	1000f60 <__adddf3>
 10002e8:	000a0613          	mv	a2,s4
 10002ec:	000a8693          	mv	a3,s5
 10002f0:	450020ef          	jal	1002740 <__subdf3>
 10002f4:	00040613          	mv	a2,s0
 10002f8:	00048693          	mv	a3,s1
 10002fc:	5a9010ef          	jal	10020a4 <__muldf3>
 1000300:	000c0613          	mv	a2,s8
 1000304:	000c8693          	mv	a3,s9
 1000308:	00050d13          	mv	s10,a0
 100030c:	00058d93          	mv	s11,a1
 1000310:	451000ef          	jal	1000f60 <__adddf3>
 1000314:	000b0613          	mv	a2,s6
 1000318:	000b8693          	mv	a3,s7
 100031c:	424020ef          	jal	1002740 <__subdf3>
 1000320:	000a0613          	mv	a2,s4
 1000324:	000a8693          	mv	a3,s5
 1000328:	439000ef          	jal	1000f60 <__adddf3>
 100032c:	00040613          	mv	a2,s0
 1000330:	00048693          	mv	a3,s1
 1000334:	571010ef          	jal	10020a4 <__muldf3>
 1000338:	00050c13          	mv	s8,a0
 100033c:	00058c93          	mv	s9,a1
 1000340:	00050613          	mv	a2,a0
 1000344:	00058693          	mv	a3,a1
 1000348:	000d0513          	mv	a0,s10
 100034c:	000d8593          	mv	a1,s11
 1000350:	3f0020ef          	jal	1002740 <__subdf3>
 1000354:	000b0613          	mv	a2,s6
 1000358:	000b8693          	mv	a3,s7
 100035c:	405000ef          	jal	1000f60 <__adddf3>
 1000360:	000a0613          	mv	a2,s4
 1000364:	000a8693          	mv	a3,s5
 1000368:	3f9000ef          	jal	1000f60 <__adddf3>
 100036c:	00040613          	mv	a2,s0
 1000370:	00048693          	mv	a3,s1
 1000374:	531010ef          	jal	10020a4 <__muldf3>
 1000378:	00050b13          	mv	s6,a0
 100037c:	00058b93          	mv	s7,a1
 1000380:	000d0613          	mv	a2,s10
 1000384:	000d8693          	mv	a3,s11
 1000388:	000c0513          	mv	a0,s8
 100038c:	000c8593          	mv	a1,s9
 1000390:	3b0020ef          	jal	1002740 <__subdf3>
 1000394:	000b0613          	mv	a2,s6
 1000398:	000b8693          	mv	a3,s7
 100039c:	3c5000ef          	jal	1000f60 <__adddf3>
 10003a0:	000a0613          	mv	a2,s4
 10003a4:	000a8693          	mv	a3,s5
 10003a8:	3b9000ef          	jal	1000f60 <__adddf3>
 10003ac:	00090613          	mv	a2,s2
 10003b0:	00098693          	mv	a3,s3
 10003b4:	2f8010ef          	jal	10016ac <__divdf3>
 10003b8:	00050a13          	mv	s4,a0
 10003bc:	00058a93          	mv	s5,a1
 10003c0:	000c0613          	mv	a2,s8
 10003c4:	000c8693          	mv	a3,s9
 10003c8:	000d0513          	mv	a0,s10
 10003cc:	000d8593          	mv	a1,s11
 10003d0:	391000ef          	jal	1000f60 <__adddf3>
 10003d4:	000b0613          	mv	a2,s6
 10003d8:	000b8693          	mv	a3,s7
 10003dc:	385000ef          	jal	1000f60 <__adddf3>
 10003e0:	000a0613          	mv	a2,s4
 10003e4:	000a8693          	mv	a3,s5
 10003e8:	358020ef          	jal	1002740 <__subdf3>
 10003ec:	00040613          	mv	a2,s0
 10003f0:	00048693          	mv	a3,s1
 10003f4:	4b1010ef          	jal	10020a4 <__muldf3>
 10003f8:	00050d13          	mv	s10,a0
 10003fc:	00058d93          	mv	s11,a1
 1000400:	00050613          	mv	a2,a0
 1000404:	00058693          	mv	a3,a1
 1000408:	000c0513          	mv	a0,s8
 100040c:	000c8593          	mv	a1,s9
 1000410:	351000ef          	jal	1000f60 <__adddf3>
 1000414:	000b0613          	mv	a2,s6
 1000418:	000b8693          	mv	a3,s7
 100041c:	324020ef          	jal	1002740 <__subdf3>
 1000420:	000a0613          	mv	a2,s4
 1000424:	000a8693          	mv	a3,s5
 1000428:	339000ef          	jal	1000f60 <__adddf3>
 100042c:	00040613          	mv	a2,s0
 1000430:	00048693          	mv	a3,s1
 1000434:	471010ef          	jal	10020a4 <__muldf3>
 1000438:	00050c13          	mv	s8,a0
 100043c:	00058c93          	mv	s9,a1
 1000440:	00050613          	mv	a2,a0
 1000444:	00058693          	mv	a3,a1
 1000448:	000d0513          	mv	a0,s10
 100044c:	000d8593          	mv	a1,s11
 1000450:	2f0020ef          	jal	1002740 <__subdf3>
 1000454:	000b0613          	mv	a2,s6
 1000458:	000b8693          	mv	a3,s7
 100045c:	305000ef          	jal	1000f60 <__adddf3>
 1000460:	000a0613          	mv	a2,s4
 1000464:	000a8693          	mv	a3,s5
 1000468:	2f9000ef          	jal	1000f60 <__adddf3>
 100046c:	00040613          	mv	a2,s0
 1000470:	00048693          	mv	a3,s1
 1000474:	431010ef          	jal	10020a4 <__muldf3>
 1000478:	00050b13          	mv	s6,a0
 100047c:	00058b93          	mv	s7,a1
 1000480:	000d0613          	mv	a2,s10
 1000484:	000d8693          	mv	a3,s11
 1000488:	000c0513          	mv	a0,s8
 100048c:	000c8593          	mv	a1,s9
 1000490:	2b0020ef          	jal	1002740 <__subdf3>
 1000494:	000b0613          	mv	a2,s6
 1000498:	000b8693          	mv	a3,s7
 100049c:	2c5000ef          	jal	1000f60 <__adddf3>
 10004a0:	000a0613          	mv	a2,s4
 10004a4:	000a8693          	mv	a3,s5
 10004a8:	2b9000ef          	jal	1000f60 <__adddf3>
 10004ac:	00090613          	mv	a2,s2
 10004b0:	00098693          	mv	a3,s3
 10004b4:	1f8010ef          	jal	10016ac <__divdf3>
 10004b8:	00050a13          	mv	s4,a0
 10004bc:	00058a93          	mv	s5,a1
 10004c0:	000c0613          	mv	a2,s8
 10004c4:	000c8693          	mv	a3,s9
 10004c8:	000d0513          	mv	a0,s10
 10004cc:	000d8593          	mv	a1,s11
 10004d0:	291000ef          	jal	1000f60 <__adddf3>
 10004d4:	000b0613          	mv	a2,s6
 10004d8:	000b8693          	mv	a3,s7
 10004dc:	285000ef          	jal	1000f60 <__adddf3>
 10004e0:	000a0613          	mv	a2,s4
 10004e4:	000a8693          	mv	a3,s5
 10004e8:	258020ef          	jal	1002740 <__subdf3>
 10004ec:	00040613          	mv	a2,s0
 10004f0:	00048693          	mv	a3,s1
 10004f4:	3b1010ef          	jal	10020a4 <__muldf3>
 10004f8:	00050d13          	mv	s10,a0
 10004fc:	00058d93          	mv	s11,a1
 1000500:	00050613          	mv	a2,a0
 1000504:	00058693          	mv	a3,a1
 1000508:	000c0513          	mv	a0,s8
 100050c:	000c8593          	mv	a1,s9
 1000510:	251000ef          	jal	1000f60 <__adddf3>
 1000514:	000b0613          	mv	a2,s6
 1000518:	000b8693          	mv	a3,s7
 100051c:	224020ef          	jal	1002740 <__subdf3>
 1000520:	000a0613          	mv	a2,s4
 1000524:	000a8693          	mv	a3,s5
 1000528:	239000ef          	jal	1000f60 <__adddf3>
 100052c:	00040613          	mv	a2,s0
 1000530:	00048693          	mv	a3,s1
 1000534:	371010ef          	jal	10020a4 <__muldf3>
 1000538:	00050c13          	mv	s8,a0
 100053c:	00058c93          	mv	s9,a1
 1000540:	00050613          	mv	a2,a0
 1000544:	00058693          	mv	a3,a1
 1000548:	000d0513          	mv	a0,s10
 100054c:	000d8593          	mv	a1,s11
 1000550:	1f0020ef          	jal	1002740 <__subdf3>
 1000554:	000b0613          	mv	a2,s6
 1000558:	000b8693          	mv	a3,s7
 100055c:	205000ef          	jal	1000f60 <__adddf3>
 1000560:	000a0613          	mv	a2,s4
 1000564:	000a8693          	mv	a3,s5
 1000568:	1f9000ef          	jal	1000f60 <__adddf3>
 100056c:	00040613          	mv	a2,s0
 1000570:	00048693          	mv	a3,s1
 1000574:	331010ef          	jal	10020a4 <__muldf3>
 1000578:	00050b13          	mv	s6,a0
 100057c:	00058b93          	mv	s7,a1
 1000580:	000d0613          	mv	a2,s10
 1000584:	000d8693          	mv	a3,s11
 1000588:	000c0513          	mv	a0,s8
 100058c:	000c8593          	mv	a1,s9
 1000590:	1b0020ef          	jal	1002740 <__subdf3>
 1000594:	000b0613          	mv	a2,s6
 1000598:	000b8693          	mv	a3,s7
 100059c:	1c5000ef          	jal	1000f60 <__adddf3>
 10005a0:	000a0613          	mv	a2,s4
 10005a4:	000a8693          	mv	a3,s5
 10005a8:	1b9000ef          	jal	1000f60 <__adddf3>
 10005ac:	00090613          	mv	a2,s2
 10005b0:	00098693          	mv	a3,s3
 10005b4:	0f8010ef          	jal	10016ac <__divdf3>
 10005b8:	00050a13          	mv	s4,a0
 10005bc:	00058a93          	mv	s5,a1
 10005c0:	000c0613          	mv	a2,s8
 10005c4:	000c8693          	mv	a3,s9
 10005c8:	000d0513          	mv	a0,s10
 10005cc:	000d8593          	mv	a1,s11
 10005d0:	191000ef          	jal	1000f60 <__adddf3>
 10005d4:	000b0613          	mv	a2,s6
 10005d8:	000b8693          	mv	a3,s7
 10005dc:	185000ef          	jal	1000f60 <__adddf3>
 10005e0:	000a0613          	mv	a2,s4
 10005e4:	000a8693          	mv	a3,s5
 10005e8:	158020ef          	jal	1002740 <__subdf3>
 10005ec:	00040613          	mv	a2,s0
 10005f0:	00048693          	mv	a3,s1
 10005f4:	2b1010ef          	jal	10020a4 <__muldf3>
 10005f8:	000c0613          	mv	a2,s8
 10005fc:	000c8693          	mv	a3,s9
 1000600:	00050d13          	mv	s10,a0
 1000604:	00058d93          	mv	s11,a1
 1000608:	159000ef          	jal	1000f60 <__adddf3>
 100060c:	000b0613          	mv	a2,s6
 1000610:	000b8693          	mv	a3,s7
 1000614:	12c020ef          	jal	1002740 <__subdf3>
 1000618:	000a0613          	mv	a2,s4
 100061c:	000a8693          	mv	a3,s5
 1000620:	141000ef          	jal	1000f60 <__adddf3>
 1000624:	00040613          	mv	a2,s0
 1000628:	00048693          	mv	a3,s1
 100062c:	279010ef          	jal	10020a4 <__muldf3>
 1000630:	00050c13          	mv	s8,a0
 1000634:	00058c93          	mv	s9,a1
 1000638:	00050613          	mv	a2,a0
 100063c:	00058693          	mv	a3,a1
 1000640:	000d0513          	mv	a0,s10
 1000644:	000d8593          	mv	a1,s11
 1000648:	0f8020ef          	jal	1002740 <__subdf3>
 100064c:	000b0613          	mv	a2,s6
 1000650:	000b8693          	mv	a3,s7
 1000654:	10d000ef          	jal	1000f60 <__adddf3>
 1000658:	000a0613          	mv	a2,s4
 100065c:	000a8693          	mv	a3,s5
 1000660:	101000ef          	jal	1000f60 <__adddf3>
 1000664:	00040613          	mv	a2,s0
 1000668:	00048693          	mv	a3,s1
 100066c:	239010ef          	jal	10020a4 <__muldf3>
 1000670:	00c12783          	lw	a5,12(sp)
 1000674:	00050413          	mv	s0,a0
 1000678:	00058493          	mv	s1,a1
 100067c:	01a7a423          	sw	s10,8(a5)
 1000680:	01b7a623          	sw	s11,12(a5)
 1000684:	0187a823          	sw	s8,16(a5)
 1000688:	0197aa23          	sw	s9,20(a5)
 100068c:	0087ac23          	sw	s0,24(a5)
 1000690:	0097ae23          	sw	s1,28(a5)
 1000694:	000d0613          	mv	a2,s10
 1000698:	000d8693          	mv	a3,s11
 100069c:	000c0513          	mv	a0,s8
 10006a0:	000c8593          	mv	a1,s9
 10006a4:	00f12023          	sw	a5,0(sp)
 10006a8:	098020ef          	jal	1002740 <__subdf3>
 10006ac:	00040613          	mv	a2,s0
 10006b0:	00048693          	mv	a3,s1
 10006b4:	0ad000ef          	jal	1000f60 <__adddf3>
 10006b8:	000a0613          	mv	a2,s4
 10006bc:	000a8693          	mv	a3,s5
 10006c0:	0a1000ef          	jal	1000f60 <__adddf3>
 10006c4:	00098693          	mv	a3,s3
 10006c8:	00090613          	mv	a2,s2
 10006cc:	7e1000ef          	jal	10016ac <__divdf3>
 10006d0:	00012783          	lw	a5,0(sp)
 10006d4:	04812403          	lw	s0,72(sp)
 10006d8:	04c12083          	lw	ra,76(sp)
 10006dc:	01008737          	lui	a4,0x1008
 10006e0:	00600693          	li	a3,6
 10006e4:	04412483          	lw	s1,68(sp)
 10006e8:	04012903          	lw	s2,64(sp)
 10006ec:	03c12983          	lw	s3,60(sp)
 10006f0:	03812a03          	lw	s4,56(sp)
 10006f4:	03412a83          	lw	s5,52(sp)
 10006f8:	03012b03          	lw	s6,48(sp)
 10006fc:	02c12b83          	lw	s7,44(sp)
 1000700:	02812c03          	lw	s8,40(sp)
 1000704:	02412c83          	lw	s9,36(sp)
 1000708:	02012d03          	lw	s10,32(sp)
 100070c:	02a7a023          	sw	a0,32(a5)
 1000710:	02b7a223          	sw	a1,36(a5)
 1000714:	c8d72c23          	sw	a3,-872(a4) # 1007c98 <J>
 1000718:	01c12d83          	lw	s11,28(sp)
 100071c:	05010113          	addi	sp,sp,80
 1000720:	00008067          	ret

01000724 <P0>:
 1000724:	010087b7          	lui	a5,0x1008
 1000728:	c947a683          	lw	a3,-876(a5) # 1007c94 <K>
 100072c:	01008737          	lui	a4,0x1008
 1000730:	010087b7          	lui	a5,0x1008
 1000734:	b0878793          	addi	a5,a5,-1272 # 1007b08 <E1>
 1000738:	c9872703          	lw	a4,-872(a4) # 1007c98 <J>
 100073c:	00369693          	slli	a3,a3,0x3
 1000740:	01008637          	lui	a2,0x1008
 1000744:	00d786b3          	add	a3,a5,a3
 1000748:	c9062603          	lw	a2,-880(a2) # 1007c90 <L>
 100074c:	0006a503          	lw	a0,0(a3)
 1000750:	0046a583          	lw	a1,4(a3)
 1000754:	00371713          	slli	a4,a4,0x3
 1000758:	00e78733          	add	a4,a5,a4
 100075c:	00361613          	slli	a2,a2,0x3
 1000760:	00a72023          	sw	a0,0(a4)
 1000764:	00b72223          	sw	a1,4(a4)
 1000768:	00c787b3          	add	a5,a5,a2
 100076c:	0007a503          	lw	a0,0(a5)
 1000770:	0047a583          	lw	a1,4(a5)
 1000774:	00a6a023          	sw	a0,0(a3)
 1000778:	00b6a223          	sw	a1,4(a3)
 100077c:	00072603          	lw	a2,0(a4)
 1000780:	00472683          	lw	a3,4(a4)
 1000784:	00c7a023          	sw	a2,0(a5)
 1000788:	00d7a223          	sw	a3,4(a5)
 100078c:	00008067          	ret

01000790 <P3>:
 1000790:	fd010113          	addi	sp,sp,-48
 1000794:	010087b7          	lui	a5,0x1008
 1000798:	03212023          	sw	s2,32(sp)
 100079c:	01312e23          	sw	s3,28(sp)
 10007a0:	cb07a903          	lw	s2,-848(a5) # 1007cb0 <T>
 10007a4:	cb47a983          	lw	s3,-844(a5)
 10007a8:	02112623          	sw	ra,44(sp)
 10007ac:	02812423          	sw	s0,40(sp)
 10007b0:	02912223          	sw	s1,36(sp)
 10007b4:	01412c23          	sw	s4,24(sp)
 10007b8:	01512a23          	sw	s5,20(sp)
 10007bc:	00e12623          	sw	a4,12(sp)
 10007c0:	00060a13          	mv	s4,a2
 10007c4:	00068a93          	mv	s5,a3
 10007c8:	798000ef          	jal	1000f60 <__adddf3>
 10007cc:	00090613          	mv	a2,s2
 10007d0:	00098693          	mv	a3,s3
 10007d4:	0d1010ef          	jal	10020a4 <__muldf3>
 10007d8:	00050413          	mv	s0,a0
 10007dc:	00058493          	mv	s1,a1
 10007e0:	00050613          	mv	a2,a0
 10007e4:	00058693          	mv	a3,a1
 10007e8:	000a0513          	mv	a0,s4
 10007ec:	000a8593          	mv	a1,s5
 10007f0:	770000ef          	jal	1000f60 <__adddf3>
 10007f4:	00090613          	mv	a2,s2
 10007f8:	00098693          	mv	a3,s3
 10007fc:	0a9010ef          	jal	10020a4 <__muldf3>
 1000800:	00040613          	mv	a2,s0
 1000804:	00048693          	mv	a3,s1
 1000808:	758000ef          	jal	1000f60 <__adddf3>
 100080c:	010087b7          	lui	a5,0x1008
 1000810:	ca07a603          	lw	a2,-864(a5) # 1007ca0 <T2>
 1000814:	ca47a683          	lw	a3,-860(a5)
 1000818:	695000ef          	jal	10016ac <__divdf3>
 100081c:	00c12703          	lw	a4,12(sp)
 1000820:	02c12083          	lw	ra,44(sp)
 1000824:	02812403          	lw	s0,40(sp)
 1000828:	00a72023          	sw	a0,0(a4)
 100082c:	00b72223          	sw	a1,4(a4)
 1000830:	02412483          	lw	s1,36(sp)
 1000834:	02012903          	lw	s2,32(sp)
 1000838:	01c12983          	lw	s3,28(sp)
 100083c:	01812a03          	lw	s4,24(sp)
 1000840:	01412a83          	lw	s5,20(sp)
 1000844:	03010113          	addi	sp,sp,48
 1000848:	00008067          	ret

0100084c <printf>:
 100084c:	f9010113          	addi	sp,sp,-112
 1000850:	01b12e23          	sw	s11,28(sp)
 1000854:	04112623          	sw	ra,76(sp)
 1000858:	00050d93          	mv	s11,a0
 100085c:	00054503          	lbu	a0,0(a0)
 1000860:	05410313          	addi	t1,sp,84
 1000864:	04b12a23          	sw	a1,84(sp)
 1000868:	04c12c23          	sw	a2,88(sp)
 100086c:	04d12e23          	sw	a3,92(sp)
 1000870:	06e12023          	sw	a4,96(sp)
 1000874:	06f12223          	sw	a5,100(sp)
 1000878:	07012423          	sw	a6,104(sp)
 100087c:	07112623          	sw	a7,108(sp)
 1000880:	00612023          	sw	t1,0(sp)
 1000884:	28050463          	beqz	a0,1000b0c <printf+0x2c0>
 1000888:	010077b7          	lui	a5,0x1007
 100088c:	03412c23          	sw	s4,56(sp)
 1000890:	03512a23          	sw	s5,52(sp)
 1000894:	4c07aa03          	lw	s4,1216(a5) # 10074c0 <halF+0x58>
 1000898:	4c47aa83          	lw	s5,1220(a5)
 100089c:	04812423          	sw	s0,72(sp)
 10008a0:	02000437          	lui	s0,0x2000
 10008a4:	04912223          	sw	s1,68(sp)
 10008a8:	05212023          	sw	s2,64(sp)
 10008ac:	03312e23          	sw	s3,60(sp)
 10008b0:	03812423          	sw	s8,40(sp)
 10008b4:	03612823          	sw	s6,48(sp)
 10008b8:	03712623          	sw	s7,44(sp)
 10008bc:	03912223          	sw	s9,36(sp)
 10008c0:	03a12023          	sw	s10,32(sp)
 10008c4:	00140413          	addi	s0,s0,1 # 2000001 <__stack_end+0xfe0001>
 10008c8:	02500493          	li	s1,37
 10008cc:	02000c37          	lui	s8,0x2000
 10008d0:	06600913          	li	s2,102
 10008d4:	06300993          	li	s3,99
 10008d8:	1e951863          	bne	a0,s1,1000ac8 <printf+0x27c>
 10008dc:	001dc783          	lbu	a5,1(s11)
 10008e0:	2d278263          	beq	a5,s2,1000ba4 <printf+0x358>
 10008e4:	26f96a63          	bltu	s2,a5,1000b58 <printf+0x30c>
 10008e8:	3d378263          	beq	a5,s3,1000cac <printf+0x460>
 10008ec:	06400713          	li	a4,100
 10008f0:	22e79663          	bne	a5,a4,1000b1c <printf+0x2d0>
 10008f4:	00012783          	lw	a5,0(sp)
 10008f8:	0007ab03          	lw	s6,0(a5)
 10008fc:	00478793          	addi	a5,a5,4
 1000900:	00f12023          	sw	a5,0(sp)
 1000904:	25605663          	blez	s6,1000b50 <printf+0x304>
 1000908:	00a00593          	li	a1,10
 100090c:	000b0513          	mv	a0,s6
 1000910:	58d020ef          	jal	100369c <__modsi3>
 1000914:	03050793          	addi	a5,a0,48
 1000918:	00f10223          	sb	a5,4(sp)
 100091c:	00900793          	li	a5,9
 1000920:	5b67d663          	bge	a5,s6,1000ecc <printf+0x680>
 1000924:	00a00593          	li	a1,10
 1000928:	000b0513          	mv	a0,s6
 100092c:	4ed020ef          	jal	1003618 <__divsi3>
 1000930:	00a00593          	li	a1,10
 1000934:	00050b93          	mv	s7,a0
 1000938:	565020ef          	jal	100369c <__modsi3>
 100093c:	03050793          	addi	a5,a0,48
 1000940:	00f102a3          	sb	a5,5(sp)
 1000944:	5969d863          	bge	s3,s6,1000ed4 <printf+0x688>
 1000948:	000b8513          	mv	a0,s7
 100094c:	00a00593          	li	a1,10
 1000950:	4c9020ef          	jal	1003618 <__divsi3>
 1000954:	00a00593          	li	a1,10
 1000958:	00050b93          	mv	s7,a0
 100095c:	541020ef          	jal	100369c <__modsi3>
 1000960:	03050793          	addi	a5,a0,48
 1000964:	00f10323          	sb	a5,6(sp)
 1000968:	3e700793          	li	a5,999
 100096c:	5767d863          	bge	a5,s6,1000edc <printf+0x690>
 1000970:	000b8513          	mv	a0,s7
 1000974:	00a00593          	li	a1,10
 1000978:	4a1020ef          	jal	1003618 <__divsi3>
 100097c:	00a00593          	li	a1,10
 1000980:	00050b93          	mv	s7,a0
 1000984:	519020ef          	jal	100369c <__modsi3>
 1000988:	03050713          	addi	a4,a0,48
 100098c:	000027b7          	lui	a5,0x2
 1000990:	00e103a3          	sb	a4,7(sp)
 1000994:	70f78793          	addi	a5,a5,1807 # 270f <__heap_size+0x170f>
 1000998:	5567d663          	bge	a5,s6,1000ee4 <printf+0x698>
 100099c:	000b8513          	mv	a0,s7
 10009a0:	00a00593          	li	a1,10
 10009a4:	475020ef          	jal	1003618 <__divsi3>
 10009a8:	00a00593          	li	a1,10
 10009ac:	00050b93          	mv	s7,a0
 10009b0:	4ed020ef          	jal	100369c <__modsi3>
 10009b4:	03050713          	addi	a4,a0,48
 10009b8:	000187b7          	lui	a5,0x18
 10009bc:	00e10423          	sb	a4,8(sp)
 10009c0:	69f78793          	addi	a5,a5,1695 # 1869f <__heap_size+0x1769f>
 10009c4:	5167d063          	bge	a5,s6,1000ec4 <printf+0x678>
 10009c8:	000b8513          	mv	a0,s7
 10009cc:	00a00593          	li	a1,10
 10009d0:	449020ef          	jal	1003618 <__divsi3>
 10009d4:	00a00593          	li	a1,10
 10009d8:	00050b93          	mv	s7,a0
 10009dc:	4c1020ef          	jal	100369c <__modsi3>
 10009e0:	03050713          	addi	a4,a0,48
 10009e4:	000f47b7          	lui	a5,0xf4
 10009e8:	00e104a3          	sb	a4,9(sp)
 10009ec:	23f78793          	addi	a5,a5,575 # f423f <__heap_size+0xf323f>
 10009f0:	4f67de63          	bge	a5,s6,1000eec <printf+0x6a0>
 10009f4:	000b8513          	mv	a0,s7
 10009f8:	00a00593          	li	a1,10
 10009fc:	41d020ef          	jal	1003618 <__divsi3>
 1000a00:	00a00593          	li	a1,10
 1000a04:	00050b93          	mv	s7,a0
 1000a08:	495020ef          	jal	100369c <__modsi3>
 1000a0c:	03050713          	addi	a4,a0,48
 1000a10:	009897b7          	lui	a5,0x989
 1000a14:	00e10523          	sb	a4,10(sp)
 1000a18:	67f78793          	addi	a5,a5,1663 # 98967f <__heap_size+0x98867f>
 1000a1c:	4f67d063          	bge	a5,s6,1000efc <printf+0x6b0>
 1000a20:	000b8513          	mv	a0,s7
 1000a24:	00a00593          	li	a1,10
 1000a28:	3f1020ef          	jal	1003618 <__divsi3>
 1000a2c:	00a00593          	li	a1,10
 1000a30:	00050b93          	mv	s7,a0
 1000a34:	469020ef          	jal	100369c <__modsi3>
 1000a38:	03050713          	addi	a4,a0,48
 1000a3c:	05f5e7b7          	lui	a5,0x5f5e
 1000a40:	00e105a3          	sb	a4,11(sp)
 1000a44:	0ff78793          	addi	a5,a5,255 # 5f5e0ff <__stack_end+0x4f3e0ff>
 1000a48:	4b67de63          	bge	a5,s6,1000f04 <printf+0x6b8>
 1000a4c:	000b8513          	mv	a0,s7
 1000a50:	00a00593          	li	a1,10
 1000a54:	3c5020ef          	jal	1003618 <__divsi3>
 1000a58:	00a00593          	li	a1,10
 1000a5c:	00050b93          	mv	s7,a0
 1000a60:	43d020ef          	jal	100369c <__modsi3>
 1000a64:	03050713          	addi	a4,a0,48
 1000a68:	3b9ad7b7          	lui	a5,0x3b9ad
 1000a6c:	00e10623          	sb	a4,12(sp)
 1000a70:	9ff78793          	addi	a5,a5,-1537 # 3b9ac9ff <__stack_end+0x3a98c9ff>
 1000a74:	4967dc63          	bge	a5,s6,1000f0c <printf+0x6c0>
 1000a78:	000b8513          	mv	a0,s7
 1000a7c:	00a00593          	li	a1,10
 1000a80:	399020ef          	jal	1003618 <__divsi3>
 1000a84:	03050793          	addi	a5,a0,48
 1000a88:	00f106a3          	sb	a5,13(sp)
 1000a8c:	00900693          	li	a3,9
 1000a90:	00410513          	addi	a0,sp,4
 1000a94:	020005b7          	lui	a1,0x2000
 1000a98:	00a686b3          	add	a3,a3,a0
 1000a9c:	00158593          	addi	a1,a1,1 # 2000001 <__stack_end+0xfe0001>
 1000aa0:	02000737          	lui	a4,0x2000
 1000aa4:	00072783          	lw	a5,0(a4) # 2000000 <__stack_end+0xfe0000>
 1000aa8:	0006c603          	lbu	a2,0(a3)
 1000aac:	0007d663          	bgez	a5,1000ab8 <printf+0x26c>
 1000ab0:	00072783          	lw	a5,0(a4)
 1000ab4:	fe07cee3          	bltz	a5,1000ab0 <printf+0x264>
 1000ab8:	00c58023          	sb	a2,0(a1)
 1000abc:	08d50a63          	beq	a0,a3,1000b50 <printf+0x304>
 1000ac0:	fff68693          	addi	a3,a3,-1
 1000ac4:	fe1ff06f          	j	1000aa4 <printf+0x258>
 1000ac8:	000c2783          	lw	a5,0(s8) # 2000000 <__stack_end+0xfe0000>
 1000acc:	fe07cee3          	bltz	a5,1000ac8 <printf+0x27c>
 1000ad0:	00a40023          	sb	a0,0(s0)
 1000ad4:	001d8d93          	addi	s11,s11,1
 1000ad8:	000dc503          	lbu	a0,0(s11)
 1000adc:	de051ee3          	bnez	a0,10008d8 <printf+0x8c>
 1000ae0:	04812403          	lw	s0,72(sp)
 1000ae4:	04412483          	lw	s1,68(sp)
 1000ae8:	04012903          	lw	s2,64(sp)
 1000aec:	03c12983          	lw	s3,60(sp)
 1000af0:	03812a03          	lw	s4,56(sp)
 1000af4:	03412a83          	lw	s5,52(sp)
 1000af8:	03012b03          	lw	s6,48(sp)
 1000afc:	02c12b83          	lw	s7,44(sp)
 1000b00:	02812c03          	lw	s8,40(sp)
 1000b04:	02412c83          	lw	s9,36(sp)
 1000b08:	02012d03          	lw	s10,32(sp)
 1000b0c:	04c12083          	lw	ra,76(sp)
 1000b10:	01c12d83          	lw	s11,28(sp)
 1000b14:	07010113          	addi	sp,sp,112
 1000b18:	00008067          	ret
 1000b1c:	000c2783          	lw	a5,0(s8)
 1000b20:	0007d863          	bgez	a5,1000b30 <printf+0x2e4>
 1000b24:	02000737          	lui	a4,0x2000
 1000b28:	00072783          	lw	a5,0(a4) # 2000000 <__stack_end+0xfe0000>
 1000b2c:	fe07cee3          	bltz	a5,1000b28 <printf+0x2dc>
 1000b30:	00940023          	sb	s1,0(s0)
 1000b34:	000c2783          	lw	a5,0(s8)
 1000b38:	001dc683          	lbu	a3,1(s11)
 1000b3c:	0007d863          	bgez	a5,1000b4c <printf+0x300>
 1000b40:	02000737          	lui	a4,0x2000
 1000b44:	00072783          	lw	a5,0(a4) # 2000000 <__stack_end+0xfe0000>
 1000b48:	fe07cee3          	bltz	a5,1000b44 <printf+0x2f8>
 1000b4c:	00d40023          	sb	a3,0(s0)
 1000b50:	002d8d93          	addi	s11,s11,2
 1000b54:	f85ff06f          	j	1000ad8 <printf+0x28c>
 1000b58:	07300713          	li	a4,115
 1000b5c:	fce790e3          	bne	a5,a4,1000b1c <printf+0x2d0>
 1000b60:	00012783          	lw	a5,0(sp)
 1000b64:	020005b7          	lui	a1,0x2000
 1000b68:	00158593          	addi	a1,a1,1 # 2000001 <__stack_end+0xfe0001>
 1000b6c:	0007a603          	lw	a2,0(a5)
 1000b70:	00478793          	addi	a5,a5,4
 1000b74:	00f12023          	sw	a5,0(sp)
 1000b78:	00064683          	lbu	a3,0(a2)
 1000b7c:	02000737          	lui	a4,0x2000
 1000b80:	fc0688e3          	beqz	a3,1000b50 <printf+0x304>
 1000b84:	00072783          	lw	a5,0(a4) # 2000000 <__stack_end+0xfe0000>
 1000b88:	fe07cee3          	bltz	a5,1000b84 <printf+0x338>
 1000b8c:	00d58023          	sb	a3,0(a1)
 1000b90:	00164683          	lbu	a3,1(a2)
 1000b94:	00160613          	addi	a2,a2,1
 1000b98:	fe0696e3          	bnez	a3,1000b84 <printf+0x338>
 1000b9c:	002d8d93          	addi	s11,s11,2
 1000ba0:	f39ff06f          	j	1000ad8 <printf+0x28c>
 1000ba4:	00012783          	lw	a5,0(sp)
 1000ba8:	00000613          	li	a2,0
 1000bac:	00000693          	li	a3,0
 1000bb0:	00778793          	addi	a5,a5,7
 1000bb4:	ff87f793          	andi	a5,a5,-8
 1000bb8:	0007ad03          	lw	s10,0(a5)
 1000bbc:	0047ab83          	lw	s7,4(a5)
 1000bc0:	00878793          	addi	a5,a5,8
 1000bc4:	000d0513          	mv	a0,s10
 1000bc8:	000b8593          	mv	a1,s7
 1000bcc:	00f12023          	sw	a5,0(sp)
 1000bd0:	3fc010ef          	jal	1001fcc <__ledf2>
 1000bd4:	10054263          	bltz	a0,1000cd8 <printf+0x48c>
 1000bd8:	000b8593          	mv	a1,s7
 1000bdc:	000d0513          	mv	a0,s10
 1000be0:	308020ef          	jal	1002ee8 <__fixdfsi>
 1000be4:	00050b13          	mv	s6,a0
 1000be8:	37c020ef          	jal	1002f64 <__floatsidf>
 1000bec:	00050613          	mv	a2,a0
 1000bf0:	00058693          	mv	a3,a1
 1000bf4:	000d0513          	mv	a0,s10
 1000bf8:	000b8593          	mv	a1,s7
 1000bfc:	345010ef          	jal	1002740 <__subdf3>
 1000c00:	00050b93          	mv	s7,a0
 1000c04:	00058c93          	mv	s9,a1
 1000c08:	02000737          	lui	a4,0x2000
 1000c0c:	0e0b1863          	bnez	s6,1000cfc <printf+0x4b0>
 1000c10:	00072783          	lw	a5,0(a4) # 2000000 <__stack_end+0xfe0000>
 1000c14:	fe07cee3          	bltz	a5,1000c10 <printf+0x3c4>
 1000c18:	020007b7          	lui	a5,0x2000
 1000c1c:	03000713          	li	a4,48
 1000c20:	00e780a3          	sb	a4,1(a5) # 2000001 <__stack_end+0xfe0001>
 1000c24:	000c2783          	lw	a5,0(s8)
 1000c28:	0007d863          	bgez	a5,1000c38 <printf+0x3ec>
 1000c2c:	02000737          	lui	a4,0x2000
 1000c30:	00072783          	lw	a5,0(a4) # 2000000 <__stack_end+0xfe0000>
 1000c34:	fe07cee3          	bltz	a5,1000c30 <printf+0x3e4>
 1000c38:	02e00793          	li	a5,46
 1000c3c:	00f40023          	sb	a5,0(s0)
 1000c40:	00300d13          	li	s10,3
 1000c44:	000b8513          	mv	a0,s7
 1000c48:	000a0613          	mv	a2,s4
 1000c4c:	000a8693          	mv	a3,s5
 1000c50:	000c8593          	mv	a1,s9
 1000c54:	450010ef          	jal	10020a4 <__muldf3>
 1000c58:	00050b13          	mv	s6,a0
 1000c5c:	00058b93          	mv	s7,a1
 1000c60:	288020ef          	jal	1002ee8 <__fixdfsi>
 1000c64:	000c2783          	lw	a5,0(s8)
 1000c68:	03050713          	addi	a4,a0,48
 1000c6c:	0007d663          	bgez	a5,1000c78 <printf+0x42c>
 1000c70:	000c2783          	lw	a5,0(s8)
 1000c74:	fe07cee3          	bltz	a5,1000c70 <printf+0x424>
 1000c78:	00e40023          	sb	a4,0(s0)
 1000c7c:	2e8020ef          	jal	1002f64 <__floatsidf>
 1000c80:	00050613          	mv	a2,a0
 1000c84:	00058693          	mv	a3,a1
 1000c88:	000b0513          	mv	a0,s6
 1000c8c:	000b8593          	mv	a1,s7
 1000c90:	2b1010ef          	jal	1002740 <__subdf3>
 1000c94:	fffd0d13          	addi	s10,s10,-1
 1000c98:	00050b93          	mv	s7,a0
 1000c9c:	00058c93          	mv	s9,a1
 1000ca0:	fa0d12e3          	bnez	s10,1000c44 <printf+0x3f8>
 1000ca4:	002d8d93          	addi	s11,s11,2
 1000ca8:	e31ff06f          	j	1000ad8 <printf+0x28c>
 1000cac:	00012783          	lw	a5,0(sp)
 1000cb0:	000c2703          	lw	a4,0(s8)
 1000cb4:	00478693          	addi	a3,a5,4
 1000cb8:	00d12023          	sw	a3,0(sp)
 1000cbc:	0007a683          	lw	a3,0(a5)
 1000cc0:	e80756e3          	bgez	a4,1000b4c <printf+0x300>
 1000cc4:	02000737          	lui	a4,0x2000
 1000cc8:	00072783          	lw	a5,0(a4) # 2000000 <__stack_end+0xfe0000>
 1000ccc:	fe07cee3          	bltz	a5,1000cc8 <printf+0x47c>
 1000cd0:	00d40023          	sb	a3,0(s0)
 1000cd4:	e7dff06f          	j	1000b50 <printf+0x304>
 1000cd8:	02000737          	lui	a4,0x2000
 1000cdc:	00072783          	lw	a5,0(a4) # 2000000 <__stack_end+0xfe0000>
 1000ce0:	fe07cee3          	bltz	a5,1000cdc <printf+0x490>
 1000ce4:	020007b7          	lui	a5,0x2000
 1000ce8:	02d00713          	li	a4,45
 1000cec:	00e780a3          	sb	a4,1(a5) # 2000001 <__stack_end+0xfe0001>
 1000cf0:	800007b7          	lui	a5,0x80000
 1000cf4:	00fbcbb3          	xor	s7,s7,a5
 1000cf8:	ee1ff06f          	j	1000bd8 <printf+0x38c>
 1000cfc:	f36054e3          	blez	s6,1000c24 <printf+0x3d8>
 1000d00:	00a00593          	li	a1,10
 1000d04:	000b0513          	mv	a0,s6
 1000d08:	195020ef          	jal	100369c <__modsi3>
 1000d0c:	03050793          	addi	a5,a0,48
 1000d10:	00f10223          	sb	a5,4(sp)
 1000d14:	00900793          	li	a5,9
 1000d18:	2167d263          	bge	a5,s6,1000f1c <printf+0x6d0>
 1000d1c:	00a00593          	li	a1,10
 1000d20:	000b0513          	mv	a0,s6
 1000d24:	0f5020ef          	jal	1003618 <__divsi3>
 1000d28:	00a00593          	li	a1,10
 1000d2c:	00050d13          	mv	s10,a0
 1000d30:	16d020ef          	jal	100369c <__modsi3>
 1000d34:	03050793          	addi	a5,a0,48
 1000d38:	00f102a3          	sb	a5,5(sp)
 1000d3c:	06300793          	li	a5,99
 1000d40:	1d67da63          	bge	a5,s6,1000f14 <printf+0x6c8>
 1000d44:	000d0513          	mv	a0,s10
 1000d48:	00a00593          	li	a1,10
 1000d4c:	0cd020ef          	jal	1003618 <__divsi3>
 1000d50:	00a00593          	li	a1,10
 1000d54:	00050d13          	mv	s10,a0
 1000d58:	145020ef          	jal	100369c <__modsi3>
 1000d5c:	03050793          	addi	a5,a0,48
 1000d60:	00f10323          	sb	a5,6(sp)
 1000d64:	3e700793          	li	a5,999
 1000d68:	1967d663          	bge	a5,s6,1000ef4 <printf+0x6a8>
 1000d6c:	000d0513          	mv	a0,s10
 1000d70:	00a00593          	li	a1,10
 1000d74:	0a5020ef          	jal	1003618 <__divsi3>
 1000d78:	00a00593          	li	a1,10
 1000d7c:	00050d13          	mv	s10,a0
 1000d80:	11d020ef          	jal	100369c <__modsi3>
 1000d84:	03050713          	addi	a4,a0,48
 1000d88:	000027b7          	lui	a5,0x2
 1000d8c:	00e103a3          	sb	a4,7(sp)
 1000d90:	70f78793          	addi	a5,a5,1807 # 270f <__heap_size+0x170f>
 1000d94:	1967d863          	bge	a5,s6,1000f24 <printf+0x6d8>
 1000d98:	000d0513          	mv	a0,s10
 1000d9c:	00a00593          	li	a1,10
 1000da0:	079020ef          	jal	1003618 <__divsi3>
 1000da4:	00a00593          	li	a1,10
 1000da8:	00050d13          	mv	s10,a0
 1000dac:	0f1020ef          	jal	100369c <__modsi3>
 1000db0:	03050713          	addi	a4,a0,48
 1000db4:	000187b7          	lui	a5,0x18
 1000db8:	00e10423          	sb	a4,8(sp)
 1000dbc:	69f78793          	addi	a5,a5,1695 # 1869f <__heap_size+0x1769f>
 1000dc0:	1767d663          	bge	a5,s6,1000f2c <printf+0x6e0>
 1000dc4:	000d0513          	mv	a0,s10
 1000dc8:	00a00593          	li	a1,10
 1000dcc:	04d020ef          	jal	1003618 <__divsi3>
 1000dd0:	00a00593          	li	a1,10
 1000dd4:	00050d13          	mv	s10,a0
 1000dd8:	0c5020ef          	jal	100369c <__modsi3>
 1000ddc:	03050713          	addi	a4,a0,48
 1000de0:	000f47b7          	lui	a5,0xf4
 1000de4:	00e104a3          	sb	a4,9(sp)
 1000de8:	23f78793          	addi	a5,a5,575 # f423f <__heap_size+0xf323f>
 1000dec:	1567d863          	bge	a5,s6,1000f3c <printf+0x6f0>
 1000df0:	000d0513          	mv	a0,s10
 1000df4:	00a00593          	li	a1,10
 1000df8:	021020ef          	jal	1003618 <__divsi3>
 1000dfc:	00a00593          	li	a1,10
 1000e00:	00050d13          	mv	s10,a0
 1000e04:	099020ef          	jal	100369c <__modsi3>
 1000e08:	03050713          	addi	a4,a0,48
 1000e0c:	009897b7          	lui	a5,0x989
 1000e10:	00e10523          	sb	a4,10(sp)
 1000e14:	67f78793          	addi	a5,a5,1663 # 98967f <__heap_size+0x98867f>
 1000e18:	1367da63          	bge	a5,s6,1000f4c <printf+0x700>
 1000e1c:	000d0513          	mv	a0,s10
 1000e20:	00a00593          	li	a1,10
 1000e24:	7f4020ef          	jal	1003618 <__divsi3>
 1000e28:	00a00593          	li	a1,10
 1000e2c:	00050d13          	mv	s10,a0
 1000e30:	06d020ef          	jal	100369c <__modsi3>
 1000e34:	03050713          	addi	a4,a0,48
 1000e38:	05f5e7b7          	lui	a5,0x5f5e
 1000e3c:	00e105a3          	sb	a4,11(sp)
 1000e40:	0ff78793          	addi	a5,a5,255 # 5f5e0ff <__stack_end+0x4f3e0ff>
 1000e44:	1167d063          	bge	a5,s6,1000f44 <printf+0x6f8>
 1000e48:	000d0513          	mv	a0,s10
 1000e4c:	00a00593          	li	a1,10
 1000e50:	7c8020ef          	jal	1003618 <__divsi3>
 1000e54:	00a00593          	li	a1,10
 1000e58:	00050d13          	mv	s10,a0
 1000e5c:	041020ef          	jal	100369c <__modsi3>
 1000e60:	03050713          	addi	a4,a0,48
 1000e64:	3b9ad7b7          	lui	a5,0x3b9ad
 1000e68:	00e10623          	sb	a4,12(sp)
 1000e6c:	9ff78793          	addi	a5,a5,-1537 # 3b9ac9ff <__stack_end+0x3a98c9ff>
 1000e70:	0d67d263          	bge	a5,s6,1000f34 <printf+0x6e8>
 1000e74:	00a00593          	li	a1,10
 1000e78:	000d0513          	mv	a0,s10
 1000e7c:	79c020ef          	jal	1003618 <__divsi3>
 1000e80:	03050793          	addi	a5,a0,48
 1000e84:	00f106a3          	sb	a5,13(sp)
 1000e88:	00900593          	li	a1,9
 1000e8c:	00410313          	addi	t1,sp,4
 1000e90:	020008b7          	lui	a7,0x2000
 1000e94:	006585b3          	add	a1,a1,t1
 1000e98:	00188893          	addi	a7,a7,1 # 2000001 <__stack_end+0xfe0001>
 1000e9c:	02000737          	lui	a4,0x2000
 1000ea0:	00072783          	lw	a5,0(a4) # 2000000 <__stack_end+0xfe0000>
 1000ea4:	0005c503          	lbu	a0,0(a1)
 1000ea8:	0007d663          	bgez	a5,1000eb4 <printf+0x668>
 1000eac:	00072783          	lw	a5,0(a4)
 1000eb0:	fe07cee3          	bltz	a5,1000eac <printf+0x660>
 1000eb4:	00a88023          	sb	a0,0(a7)
 1000eb8:	d66586e3          	beq	a1,t1,1000c24 <printf+0x3d8>
 1000ebc:	fff58593          	addi	a1,a1,-1
 1000ec0:	fe1ff06f          	j	1000ea0 <printf+0x654>
 1000ec4:	00400693          	li	a3,4
 1000ec8:	bc9ff06f          	j	1000a90 <printf+0x244>
 1000ecc:	00000693          	li	a3,0
 1000ed0:	bc1ff06f          	j	1000a90 <printf+0x244>
 1000ed4:	00100693          	li	a3,1
 1000ed8:	bb9ff06f          	j	1000a90 <printf+0x244>
 1000edc:	00200693          	li	a3,2
 1000ee0:	bb1ff06f          	j	1000a90 <printf+0x244>
 1000ee4:	00300693          	li	a3,3
 1000ee8:	ba9ff06f          	j	1000a90 <printf+0x244>
 1000eec:	00500693          	li	a3,5
 1000ef0:	ba1ff06f          	j	1000a90 <printf+0x244>
 1000ef4:	00200593          	li	a1,2
 1000ef8:	f95ff06f          	j	1000e8c <printf+0x640>
 1000efc:	00600693          	li	a3,6
 1000f00:	b91ff06f          	j	1000a90 <printf+0x244>
 1000f04:	00700693          	li	a3,7
 1000f08:	b89ff06f          	j	1000a90 <printf+0x244>
 1000f0c:	00800693          	li	a3,8
 1000f10:	b81ff06f          	j	1000a90 <printf+0x244>
 1000f14:	00100593          	li	a1,1
 1000f18:	f75ff06f          	j	1000e8c <printf+0x640>
 1000f1c:	00000593          	li	a1,0
 1000f20:	f6dff06f          	j	1000e8c <printf+0x640>
 1000f24:	00300593          	li	a1,3
 1000f28:	f65ff06f          	j	1000e8c <printf+0x640>
 1000f2c:	00400593          	li	a1,4
 1000f30:	f5dff06f          	j	1000e8c <printf+0x640>
 1000f34:	00800593          	li	a1,8
 1000f38:	f55ff06f          	j	1000e8c <printf+0x640>
 1000f3c:	00500593          	li	a1,5
 1000f40:	f4dff06f          	j	1000e8c <printf+0x640>
 1000f44:	00700593          	li	a1,7
 1000f48:	f45ff06f          	j	1000e8c <printf+0x640>
 1000f4c:	00600593          	li	a1,6
 1000f50:	f3dff06f          	j	1000e8c <printf+0x640>

01000f54 <time>:
 1000f54:	030007b7          	lui	a5,0x3000
 1000f58:	0007a503          	lw	a0,0(a5) # 3000000 <__stack_end+0x1fe0000>
 1000f5c:	00008067          	ret

01000f60 <__adddf3>:
 1000f60:	00100737          	lui	a4,0x100
 1000f64:	fe010113          	addi	sp,sp,-32
 1000f68:	fff70713          	addi	a4,a4,-1 # fffff <__heap_size+0xfefff>
 1000f6c:	00b777b3          	and	a5,a4,a1
 1000f70:	0146d893          	srli	a7,a3,0x14
 1000f74:	00d77733          	and	a4,a4,a3
 1000f78:	00812c23          	sw	s0,24(sp)
 1000f7c:	0145d413          	srli	s0,a1,0x14
 1000f80:	00371713          	slli	a4,a4,0x3
 1000f84:	01d65813          	srli	a6,a2,0x1d
 1000f88:	01212823          	sw	s2,16(sp)
 1000f8c:	7ff47413          	andi	s0,s0,2047
 1000f90:	01f5d913          	srli	s2,a1,0x1f
 1000f94:	00379793          	slli	a5,a5,0x3
 1000f98:	01d55593          	srli	a1,a0,0x1d
 1000f9c:	7ff8f893          	andi	a7,a7,2047
 1000fa0:	00112e23          	sw	ra,28(sp)
 1000fa4:	00912a23          	sw	s1,20(sp)
 1000fa8:	01312623          	sw	s3,12(sp)
 1000fac:	01f6d693          	srli	a3,a3,0x1f
 1000fb0:	00f5e7b3          	or	a5,a1,a5
 1000fb4:	00e86833          	or	a6,a6,a4
 1000fb8:	00351513          	slli	a0,a0,0x3
 1000fbc:	00361613          	slli	a2,a2,0x3
 1000fc0:	41140733          	sub	a4,s0,a7
 1000fc4:	7ff00593          	li	a1,2047
 1000fc8:	30d91463          	bne	s2,a3,10012d0 <__adddf3+0x370>
 1000fcc:	10e05263          	blez	a4,10010d0 <__adddf3+0x170>
 1000fd0:	02089c63          	bnez	a7,1001008 <__adddf3+0xa8>
 1000fd4:	00c86733          	or	a4,a6,a2
 1000fd8:	02070463          	beqz	a4,1001000 <__adddf3+0xa0>
 1000fdc:	fff40713          	addi	a4,s0,-1
 1000fe0:	00071e63          	bnez	a4,1000ffc <__adddf3+0x9c>
 1000fe4:	00c50633          	add	a2,a0,a2
 1000fe8:	010787b3          	add	a5,a5,a6
 1000fec:	00a63533          	sltu	a0,a2,a0
 1000ff0:	00a787b3          	add	a5,a5,a0
 1000ff4:	00100413          	li	s0,1
 1000ff8:	0600006f          	j	1001058 <__adddf3+0xf8>
 1000ffc:	00b41c63          	bne	s0,a1,1001014 <__adddf3+0xb4>
 1001000:	00050613          	mv	a2,a0
 1001004:	1d80006f          	j	10011dc <__adddf3+0x27c>
 1001008:	feb40ce3          	beq	s0,a1,1001000 <__adddf3+0xa0>
 100100c:	008006b7          	lui	a3,0x800
 1001010:	00d86833          	or	a6,a6,a3
 1001014:	03800693          	li	a3,56
 1001018:	0ae6c663          	blt	a3,a4,10010c4 <__adddf3+0x164>
 100101c:	01f00693          	li	a3,31
 1001020:	02000893          	li	a7,32
 1001024:	06e6c863          	blt	a3,a4,1001094 <__adddf3+0x134>
 1001028:	40e888b3          	sub	a7,a7,a4
 100102c:	011816b3          	sll	a3,a6,a7
 1001030:	00e655b3          	srl	a1,a2,a4
 1001034:	011618b3          	sll	a7,a2,a7
 1001038:	00b6e6b3          	or	a3,a3,a1
 100103c:	011038b3          	snez	a7,a7
 1001040:	0116e6b3          	or	a3,a3,a7
 1001044:	00e85733          	srl	a4,a6,a4
 1001048:	00a68633          	add	a2,a3,a0
 100104c:	00f70733          	add	a4,a4,a5
 1001050:	00d636b3          	sltu	a3,a2,a3
 1001054:	00d707b3          	add	a5,a4,a3
 1001058:	00879713          	slli	a4,a5,0x8
 100105c:	22075663          	bgez	a4,1001288 <__adddf3+0x328>
 1001060:	00140413          	addi	s0,s0,1
 1001064:	7ff00713          	li	a4,2047
 1001068:	60e40863          	beq	s0,a4,1001678 <__adddf3+0x718>
 100106c:	ff800737          	lui	a4,0xff800
 1001070:	fff70713          	addi	a4,a4,-1 # ff7fffff <__stack_end+0xfe7dffff>
 1001074:	00e7f7b3          	and	a5,a5,a4
 1001078:	00165713          	srli	a4,a2,0x1
 100107c:	00167613          	andi	a2,a2,1
 1001080:	00c76733          	or	a4,a4,a2
 1001084:	01f79613          	slli	a2,a5,0x1f
 1001088:	00e66633          	or	a2,a2,a4
 100108c:	0017d793          	srli	a5,a5,0x1
 1001090:	1f80006f          	j	1001288 <__adddf3+0x328>
 1001094:	fe070693          	addi	a3,a4,-32
 1001098:	00d856b3          	srl	a3,a6,a3
 100109c:	00000593          	li	a1,0
 10010a0:	01170863          	beq	a4,a7,10010b0 <__adddf3+0x150>
 10010a4:	04000593          	li	a1,64
 10010a8:	40e585b3          	sub	a1,a1,a4
 10010ac:	00b815b3          	sll	a1,a6,a1
 10010b0:	00c5e5b3          	or	a1,a1,a2
 10010b4:	00b035b3          	snez	a1,a1
 10010b8:	00b6e6b3          	or	a3,a3,a1
 10010bc:	00000713          	li	a4,0
 10010c0:	f89ff06f          	j	1001048 <__adddf3+0xe8>
 10010c4:	00c866b3          	or	a3,a6,a2
 10010c8:	00d036b3          	snez	a3,a3
 10010cc:	ff1ff06f          	j	10010bc <__adddf3+0x15c>
 10010d0:	0c070263          	beqz	a4,1001194 <__adddf3+0x234>
 10010d4:	40888733          	sub	a4,a7,s0
 10010d8:	02041263          	bnez	s0,10010fc <__adddf3+0x19c>
 10010dc:	00a7e6b3          	or	a3,a5,a0
 10010e0:	00068863          	beqz	a3,10010f0 <__adddf3+0x190>
 10010e4:	fff70693          	addi	a3,a4,-1
 10010e8:	ee068ee3          	beqz	a3,1000fe4 <__adddf3+0x84>
 10010ec:	02b71063          	bne	a4,a1,100110c <__adddf3+0x1ac>
 10010f0:	00080793          	mv	a5,a6
 10010f4:	00070413          	mv	s0,a4
 10010f8:	0e40006f          	j	10011dc <__adddf3+0x27c>
 10010fc:	58b88663          	beq	a7,a1,1001688 <__adddf3+0x728>
 1001100:	008006b7          	lui	a3,0x800
 1001104:	00d7e7b3          	or	a5,a5,a3
 1001108:	00070693          	mv	a3,a4
 100110c:	03800713          	li	a4,56
 1001110:	06d74c63          	blt	a4,a3,1001188 <__adddf3+0x228>
 1001114:	01f00713          	li	a4,31
 1001118:	02000313          	li	t1,32
 100111c:	02d74e63          	blt	a4,a3,1001158 <__adddf3+0x1f8>
 1001120:	40d30333          	sub	t1,t1,a3
 1001124:	00679733          	sll	a4,a5,t1
 1001128:	00d555b3          	srl	a1,a0,a3
 100112c:	00651333          	sll	t1,a0,t1
 1001130:	00b76733          	or	a4,a4,a1
 1001134:	00603333          	snez	t1,t1
 1001138:	00676733          	or	a4,a4,t1
 100113c:	00d7d6b3          	srl	a3,a5,a3
 1001140:	00c70633          	add	a2,a4,a2
 1001144:	010686b3          	add	a3,a3,a6
 1001148:	00e63733          	sltu	a4,a2,a4
 100114c:	00e687b3          	add	a5,a3,a4
 1001150:	00088413          	mv	s0,a7
 1001154:	f05ff06f          	j	1001058 <__adddf3+0xf8>
 1001158:	fe068713          	addi	a4,a3,-32 # 7fffe0 <__heap_size+0x7fefe0>
 100115c:	00e7d733          	srl	a4,a5,a4
 1001160:	00000593          	li	a1,0
 1001164:	00668863          	beq	a3,t1,1001174 <__adddf3+0x214>
 1001168:	04000593          	li	a1,64
 100116c:	40d585b3          	sub	a1,a1,a3
 1001170:	00b795b3          	sll	a1,a5,a1
 1001174:	00a5e5b3          	or	a1,a1,a0
 1001178:	00b035b3          	snez	a1,a1
 100117c:	00b76733          	or	a4,a4,a1
 1001180:	00000693          	li	a3,0
 1001184:	fbdff06f          	j	1001140 <__adddf3+0x1e0>
 1001188:	00a7e733          	or	a4,a5,a0
 100118c:	00e03733          	snez	a4,a4
 1001190:	ff1ff06f          	j	1001180 <__adddf3+0x220>
 1001194:	00140713          	addi	a4,s0,1
 1001198:	7fe77693          	andi	a3,a4,2046
 100119c:	0c069263          	bnez	a3,1001260 <__adddf3+0x300>
 10011a0:	00a7e733          	or	a4,a5,a0
 10011a4:	0a041463          	bnez	s0,100124c <__adddf3+0x2ec>
 10011a8:	4a070863          	beqz	a4,1001658 <__adddf3+0x6f8>
 10011ac:	00c86733          	or	a4,a6,a2
 10011b0:	4a070863          	beqz	a4,1001660 <__adddf3+0x700>
 10011b4:	00c50633          	add	a2,a0,a2
 10011b8:	010787b3          	add	a5,a5,a6
 10011bc:	00a63533          	sltu	a0,a2,a0
 10011c0:	00a787b3          	add	a5,a5,a0
 10011c4:	00879713          	slli	a4,a5,0x8
 10011c8:	32075a63          	bgez	a4,10014fc <__adddf3+0x59c>
 10011cc:	ff800737          	lui	a4,0xff800
 10011d0:	fff70713          	addi	a4,a4,-1 # ff7fffff <__stack_end+0xfe7dffff>
 10011d4:	00e7f7b3          	and	a5,a5,a4
 10011d8:	00100413          	li	s0,1
 10011dc:	01d79713          	slli	a4,a5,0x1d
 10011e0:	00365613          	srli	a2,a2,0x3
 10011e4:	7ff00693          	li	a3,2047
 10011e8:	00c76733          	or	a4,a4,a2
 10011ec:	0037d793          	srli	a5,a5,0x3
 10011f0:	00d41e63          	bne	s0,a3,100120c <__adddf3+0x2ac>
 10011f4:	00f76733          	or	a4,a4,a5
 10011f8:	00000793          	li	a5,0
 10011fc:	00070863          	beqz	a4,100120c <__adddf3+0x2ac>
 1001200:	000807b7          	lui	a5,0x80
 1001204:	00000713          	li	a4,0
 1001208:	00000913          	li	s2,0
 100120c:	7ff47413          	andi	s0,s0,2047
 1001210:	00c79793          	slli	a5,a5,0xc
 1001214:	00c7d793          	srli	a5,a5,0xc
 1001218:	01441413          	slli	s0,s0,0x14
 100121c:	01f91593          	slli	a1,s2,0x1f
 1001220:	00f46433          	or	s0,s0,a5
 1001224:	01c12083          	lw	ra,28(sp)
 1001228:	00b467b3          	or	a5,s0,a1
 100122c:	01812403          	lw	s0,24(sp)
 1001230:	01412483          	lw	s1,20(sp)
 1001234:	01012903          	lw	s2,16(sp)
 1001238:	00c12983          	lw	s3,12(sp)
 100123c:	00070513          	mv	a0,a4
 1001240:	00078593          	mv	a1,a5
 1001244:	02010113          	addi	sp,sp,32
 1001248:	00008067          	ret
 100124c:	40070e63          	beqz	a4,1001668 <__adddf3+0x708>
 1001250:	00c86833          	or	a6,a6,a2
 1001254:	2c081c63          	bnez	a6,100152c <__adddf3+0x5cc>
 1001258:	00050613          	mv	a2,a0
 100125c:	4100006f          	j	100166c <__adddf3+0x70c>
 1001260:	40b70a63          	beq	a4,a1,1001674 <__adddf3+0x714>
 1001264:	00c50633          	add	a2,a0,a2
 1001268:	00a63533          	sltu	a0,a2,a0
 100126c:	010787b3          	add	a5,a5,a6
 1001270:	00a787b3          	add	a5,a5,a0
 1001274:	01f79693          	slli	a3,a5,0x1f
 1001278:	00165613          	srli	a2,a2,0x1
 100127c:	00c6e633          	or	a2,a3,a2
 1001280:	0017d793          	srli	a5,a5,0x1
 1001284:	00070413          	mv	s0,a4
 1001288:	00767713          	andi	a4,a2,7
 100128c:	02070063          	beqz	a4,10012ac <__adddf3+0x34c>
 1001290:	00f67713          	andi	a4,a2,15
 1001294:	00400693          	li	a3,4
 1001298:	00d70a63          	beq	a4,a3,10012ac <__adddf3+0x34c>
 100129c:	00d60733          	add	a4,a2,a3
 10012a0:	00c736b3          	sltu	a3,a4,a2
 10012a4:	00d787b3          	add	a5,a5,a3
 10012a8:	00070613          	mv	a2,a4
 10012ac:	00879713          	slli	a4,a5,0x8
 10012b0:	f20756e3          	bgez	a4,10011dc <__adddf3+0x27c>
 10012b4:	00140413          	addi	s0,s0,1
 10012b8:	7ff00713          	li	a4,2047
 10012bc:	3ae40e63          	beq	s0,a4,1001678 <__adddf3+0x718>
 10012c0:	ff800737          	lui	a4,0xff800
 10012c4:	fff70713          	addi	a4,a4,-1 # ff7fffff <__stack_end+0xfe7dffff>
 10012c8:	00e7f7b3          	and	a5,a5,a4
 10012cc:	f11ff06f          	j	10011dc <__adddf3+0x27c>
 10012d0:	0ee05063          	blez	a4,10013b0 <__adddf3+0x450>
 10012d4:	08089863          	bnez	a7,1001364 <__adddf3+0x404>
 10012d8:	00c86733          	or	a4,a6,a2
 10012dc:	d20702e3          	beqz	a4,1001000 <__adddf3+0xa0>
 10012e0:	fff40713          	addi	a4,s0,-1
 10012e4:	00071e63          	bnez	a4,1001300 <__adddf3+0x3a0>
 10012e8:	40c50633          	sub	a2,a0,a2
 10012ec:	410787b3          	sub	a5,a5,a6
 10012f0:	00c53533          	sltu	a0,a0,a2
 10012f4:	40a787b3          	sub	a5,a5,a0
 10012f8:	00100413          	li	s0,1
 10012fc:	04c0006f          	j	1001348 <__adddf3+0x3e8>
 1001300:	d0b400e3          	beq	s0,a1,1001000 <__adddf3+0xa0>
 1001304:	03800693          	li	a3,56
 1001308:	08e6ce63          	blt	a3,a4,10013a4 <__adddf3+0x444>
 100130c:	01f00693          	li	a3,31
 1001310:	02000893          	li	a7,32
 1001314:	06e6c063          	blt	a3,a4,1001374 <__adddf3+0x414>
 1001318:	40e888b3          	sub	a7,a7,a4
 100131c:	011816b3          	sll	a3,a6,a7
 1001320:	00e655b3          	srl	a1,a2,a4
 1001324:	011618b3          	sll	a7,a2,a7
 1001328:	00b6e6b3          	or	a3,a3,a1
 100132c:	011038b3          	snez	a7,a7
 1001330:	0116e6b3          	or	a3,a3,a7
 1001334:	00e85733          	srl	a4,a6,a4
 1001338:	40d50633          	sub	a2,a0,a3
 100133c:	40e78733          	sub	a4,a5,a4
 1001340:	00c53533          	sltu	a0,a0,a2
 1001344:	40a707b3          	sub	a5,a4,a0
 1001348:	00879713          	slli	a4,a5,0x8
 100134c:	f2075ee3          	bgez	a4,1001288 <__adddf3+0x328>
 1001350:	008004b7          	lui	s1,0x800
 1001354:	fff48493          	addi	s1,s1,-1 # 7fffff <__heap_size+0x7fefff>
 1001358:	0097f4b3          	and	s1,a5,s1
 100135c:	00060993          	mv	s3,a2
 1001360:	2140006f          	j	1001574 <__adddf3+0x614>
 1001364:	c8b40ee3          	beq	s0,a1,1001000 <__adddf3+0xa0>
 1001368:	008006b7          	lui	a3,0x800
 100136c:	00d86833          	or	a6,a6,a3
 1001370:	f95ff06f          	j	1001304 <__adddf3+0x3a4>
 1001374:	fe070693          	addi	a3,a4,-32
 1001378:	00d856b3          	srl	a3,a6,a3
 100137c:	00000593          	li	a1,0
 1001380:	01170863          	beq	a4,a7,1001390 <__adddf3+0x430>
 1001384:	04000593          	li	a1,64
 1001388:	40e585b3          	sub	a1,a1,a4
 100138c:	00b815b3          	sll	a1,a6,a1
 1001390:	00c5e5b3          	or	a1,a1,a2
 1001394:	00b035b3          	snez	a1,a1
 1001398:	00b6e6b3          	or	a3,a3,a1
 100139c:	00000713          	li	a4,0
 10013a0:	f99ff06f          	j	1001338 <__adddf3+0x3d8>
 10013a4:	00c866b3          	or	a3,a6,a2
 10013a8:	00d036b3          	snez	a3,a3
 10013ac:	ff1ff06f          	j	100139c <__adddf3+0x43c>
 10013b0:	0e070663          	beqz	a4,100149c <__adddf3+0x53c>
 10013b4:	40888333          	sub	t1,a7,s0
 10013b8:	04041263          	bnez	s0,10013fc <__adddf3+0x49c>
 10013bc:	00a7e733          	or	a4,a5,a0
 10013c0:	02070663          	beqz	a4,10013ec <__adddf3+0x48c>
 10013c4:	fff30713          	addi	a4,t1,-1
 10013c8:	02071063          	bnez	a4,10013e8 <__adddf3+0x488>
 10013cc:	40a60533          	sub	a0,a2,a0
 10013d0:	00a63733          	sltu	a4,a2,a0
 10013d4:	40f807b3          	sub	a5,a6,a5
 10013d8:	00050613          	mv	a2,a0
 10013dc:	40e787b3          	sub	a5,a5,a4
 10013e0:	00068913          	mv	s2,a3
 10013e4:	f15ff06f          	j	10012f8 <__adddf3+0x398>
 10013e8:	02b31263          	bne	t1,a1,100140c <__adddf3+0x4ac>
 10013ec:	00068913          	mv	s2,a3
 10013f0:	00080793          	mv	a5,a6
 10013f4:	00030413          	mv	s0,t1
 10013f8:	de5ff06f          	j	10011dc <__adddf3+0x27c>
 10013fc:	28b88463          	beq	a7,a1,1001684 <__adddf3+0x724>
 1001400:	00800737          	lui	a4,0x800
 1001404:	00e7e7b3          	or	a5,a5,a4
 1001408:	00030713          	mv	a4,t1
 100140c:	03800593          	li	a1,56
 1001410:	08e5c063          	blt	a1,a4,1001490 <__adddf3+0x530>
 1001414:	01f00593          	li	a1,31
 1001418:	02000e13          	li	t3,32
 100141c:	04e5c263          	blt	a1,a4,1001460 <__adddf3+0x500>
 1001420:	40ee0e33          	sub	t3,t3,a4
 1001424:	01c795b3          	sll	a1,a5,t3
 1001428:	00e55333          	srl	t1,a0,a4
 100142c:	01c51e33          	sll	t3,a0,t3
 1001430:	0065e5b3          	or	a1,a1,t1
 1001434:	01c03e33          	snez	t3,t3
 1001438:	01c5e5b3          	or	a1,a1,t3
 100143c:	00e7d733          	srl	a4,a5,a4
 1001440:	40b605b3          	sub	a1,a2,a1
 1001444:	00b637b3          	sltu	a5,a2,a1
 1001448:	40e80733          	sub	a4,a6,a4
 100144c:	00058613          	mv	a2,a1
 1001450:	40f707b3          	sub	a5,a4,a5
 1001454:	00088413          	mv	s0,a7
 1001458:	00068913          	mv	s2,a3
 100145c:	eedff06f          	j	1001348 <__adddf3+0x3e8>
 1001460:	fe070593          	addi	a1,a4,-32 # 7fffe0 <__heap_size+0x7fefe0>
 1001464:	00b7d5b3          	srl	a1,a5,a1
 1001468:	00000313          	li	t1,0
 100146c:	01c70863          	beq	a4,t3,100147c <__adddf3+0x51c>
 1001470:	04000313          	li	t1,64
 1001474:	40e30333          	sub	t1,t1,a4
 1001478:	00679333          	sll	t1,a5,t1
 100147c:	00a36333          	or	t1,t1,a0
 1001480:	00603333          	snez	t1,t1
 1001484:	0065e5b3          	or	a1,a1,t1
 1001488:	00000713          	li	a4,0
 100148c:	fb5ff06f          	j	1001440 <__adddf3+0x4e0>
 1001490:	00a7e5b3          	or	a1,a5,a0
 1001494:	00b035b3          	snez	a1,a1
 1001498:	ff1ff06f          	j	1001488 <__adddf3+0x528>
 100149c:	00140713          	addi	a4,s0,1
 10014a0:	7fe77713          	andi	a4,a4,2046
 10014a4:	0a071063          	bnez	a4,1001544 <__adddf3+0x5e4>
 10014a8:	00a7e8b3          	or	a7,a5,a0
 10014ac:	00c86733          	or	a4,a6,a2
 10014b0:	06041863          	bnez	s0,1001520 <__adddf3+0x5c0>
 10014b4:	00089a63          	bnez	a7,10014c8 <__adddf3+0x568>
 10014b8:	00080793          	mv	a5,a6
 10014bc:	02071e63          	bnez	a4,10014f8 <__adddf3+0x598>
 10014c0:	00000913          	li	s2,0
 10014c4:	1b40006f          	j	1001678 <__adddf3+0x718>
 10014c8:	18070c63          	beqz	a4,1001660 <__adddf3+0x700>
 10014cc:	40c505b3          	sub	a1,a0,a2
 10014d0:	00b538b3          	sltu	a7,a0,a1
 10014d4:	41078733          	sub	a4,a5,a6
 10014d8:	41170733          	sub	a4,a4,a7
 10014dc:	00871893          	slli	a7,a4,0x8
 10014e0:	0208d663          	bgez	a7,100150c <__adddf3+0x5ac>
 10014e4:	40a60533          	sub	a0,a2,a0
 10014e8:	00a63733          	sltu	a4,a2,a0
 10014ec:	40f807b3          	sub	a5,a6,a5
 10014f0:	00050613          	mv	a2,a0
 10014f4:	40e787b3          	sub	a5,a5,a4
 10014f8:	00068913          	mv	s2,a3
 10014fc:	00f66733          	or	a4,a2,a5
 1001500:	1a070063          	beqz	a4,10016a0 <__adddf3+0x740>
 1001504:	00000413          	li	s0,0
 1001508:	d81ff06f          	j	1001288 <__adddf3+0x328>
 100150c:	00e5e633          	or	a2,a1,a4
 1001510:	18060263          	beqz	a2,1001694 <__adddf3+0x734>
 1001514:	00070793          	mv	a5,a4
 1001518:	00058613          	mv	a2,a1
 100151c:	fe1ff06f          	j	10014fc <__adddf3+0x59c>
 1001520:	00089e63          	bnez	a7,100153c <__adddf3+0x5dc>
 1001524:	00068913          	mv	s2,a3
 1001528:	14071063          	bnez	a4,1001668 <__adddf3+0x708>
 100152c:	00000913          	li	s2,0
 1001530:	004007b7          	lui	a5,0x400
 1001534:	00000613          	li	a2,0
 1001538:	1340006f          	j	100166c <__adddf3+0x70c>
 100153c:	d0070ee3          	beqz	a4,1001258 <__adddf3+0x2f8>
 1001540:	fedff06f          	j	100152c <__adddf3+0x5cc>
 1001544:	40c50733          	sub	a4,a0,a2
 1001548:	00e535b3          	sltu	a1,a0,a4
 100154c:	410784b3          	sub	s1,a5,a6
 1001550:	40b484b3          	sub	s1,s1,a1
 1001554:	00849593          	slli	a1,s1,0x8
 1001558:	00070993          	mv	s3,a4
 100155c:	0605de63          	bgez	a1,10015d8 <__adddf3+0x678>
 1001560:	40a609b3          	sub	s3,a2,a0
 1001564:	40f804b3          	sub	s1,a6,a5
 1001568:	01363633          	sltu	a2,a2,s3
 100156c:	40c484b3          	sub	s1,s1,a2
 1001570:	00068913          	mv	s2,a3
 1001574:	06048e63          	beqz	s1,10015f0 <__adddf3+0x690>
 1001578:	00048513          	mv	a0,s1
 100157c:	150020ef          	jal	10036cc <__clzsi2>
 1001580:	ff850713          	addi	a4,a0,-8
 1001584:	02000793          	li	a5,32
 1001588:	40e787b3          	sub	a5,a5,a4
 100158c:	00e494b3          	sll	s1,s1,a4
 1001590:	00f9d7b3          	srl	a5,s3,a5
 1001594:	0097e7b3          	or	a5,a5,s1
 1001598:	00e99633          	sll	a2,s3,a4
 100159c:	0a874463          	blt	a4,s0,1001644 <__adddf3+0x6e4>
 10015a0:	40870733          	sub	a4,a4,s0
 10015a4:	00170513          	addi	a0,a4,1
 10015a8:	01f00693          	li	a3,31
 10015ac:	02000593          	li	a1,32
 10015b0:	06a6c263          	blt	a3,a0,1001614 <__adddf3+0x6b4>
 10015b4:	40a585b3          	sub	a1,a1,a0
 10015b8:	00b79733          	sll	a4,a5,a1
 10015bc:	00a656b3          	srl	a3,a2,a0
 10015c0:	00b615b3          	sll	a1,a2,a1
 10015c4:	00d76733          	or	a4,a4,a3
 10015c8:	00b035b3          	snez	a1,a1
 10015cc:	00b76633          	or	a2,a4,a1
 10015d0:	00a7d7b3          	srl	a5,a5,a0
 10015d4:	f29ff06f          	j	10014fc <__adddf3+0x59c>
 10015d8:	00976633          	or	a2,a4,s1
 10015dc:	f8061ce3          	bnez	a2,1001574 <__adddf3+0x614>
 10015e0:	00000913          	li	s2,0
 10015e4:	00000793          	li	a5,0
 10015e8:	00000413          	li	s0,0
 10015ec:	bf1ff06f          	j	10011dc <__adddf3+0x27c>
 10015f0:	00098513          	mv	a0,s3
 10015f4:	0d8020ef          	jal	10036cc <__clzsi2>
 10015f8:	01850713          	addi	a4,a0,24
 10015fc:	01f00793          	li	a5,31
 1001600:	f8e7d2e3          	bge	a5,a4,1001584 <__adddf3+0x624>
 1001604:	ff850793          	addi	a5,a0,-8
 1001608:	00f997b3          	sll	a5,s3,a5
 100160c:	00000613          	li	a2,0
 1001610:	f8dff06f          	j	100159c <__adddf3+0x63c>
 1001614:	fe170713          	addi	a4,a4,-31
 1001618:	00e7d733          	srl	a4,a5,a4
 100161c:	00000693          	li	a3,0
 1001620:	00b50863          	beq	a0,a1,1001630 <__adddf3+0x6d0>
 1001624:	04000693          	li	a3,64
 1001628:	40a686b3          	sub	a3,a3,a0
 100162c:	00d796b3          	sll	a3,a5,a3
 1001630:	00d666b3          	or	a3,a2,a3
 1001634:	00d036b3          	snez	a3,a3
 1001638:	00d76633          	or	a2,a4,a3
 100163c:	00000793          	li	a5,0
 1001640:	ebdff06f          	j	10014fc <__adddf3+0x59c>
 1001644:	40e40433          	sub	s0,s0,a4
 1001648:	ff800737          	lui	a4,0xff800
 100164c:	fff70713          	addi	a4,a4,-1 # ff7fffff <__stack_end+0xfe7dffff>
 1001650:	00e7f7b3          	and	a5,a5,a4
 1001654:	c35ff06f          	j	1001288 <__adddf3+0x328>
 1001658:	00080793          	mv	a5,a6
 100165c:	ea1ff06f          	j	10014fc <__adddf3+0x59c>
 1001660:	00050613          	mv	a2,a0
 1001664:	e99ff06f          	j	10014fc <__adddf3+0x59c>
 1001668:	00080793          	mv	a5,a6
 100166c:	00058413          	mv	s0,a1
 1001670:	b6dff06f          	j	10011dc <__adddf3+0x27c>
 1001674:	00070413          	mv	s0,a4
 1001678:	00000793          	li	a5,0
 100167c:	00000613          	li	a2,0
 1001680:	b5dff06f          	j	10011dc <__adddf3+0x27c>
 1001684:	00068913          	mv	s2,a3
 1001688:	00080793          	mv	a5,a6
 100168c:	00088413          	mv	s0,a7
 1001690:	b4dff06f          	j	10011dc <__adddf3+0x27c>
 1001694:	00000913          	li	s2,0
 1001698:	00000793          	li	a5,0
 100169c:	b41ff06f          	j	10011dc <__adddf3+0x27c>
 10016a0:	00000793          	li	a5,0
 10016a4:	00000613          	li	a2,0
 10016a8:	f41ff06f          	j	10015e8 <__adddf3+0x688>

010016ac <__divdf3>:
 10016ac:	fb010113          	addi	sp,sp,-80
 10016b0:	03512a23          	sw	s5,52(sp)
 10016b4:	0145da93          	srli	s5,a1,0x14
 10016b8:	04812423          	sw	s0,72(sp)
 10016bc:	05212023          	sw	s2,64(sp)
 10016c0:	03312e23          	sw	s3,60(sp)
 10016c4:	03412c23          	sw	s4,56(sp)
 10016c8:	03712623          	sw	s7,44(sp)
 10016cc:	00c59413          	slli	s0,a1,0xc
 10016d0:	04112623          	sw	ra,76(sp)
 10016d4:	04912223          	sw	s1,68(sp)
 10016d8:	03612823          	sw	s6,48(sp)
 10016dc:	03812423          	sw	s8,40(sp)
 10016e0:	03912223          	sw	s9,36(sp)
 10016e4:	03a12023          	sw	s10,32(sp)
 10016e8:	01b12e23          	sw	s11,28(sp)
 10016ec:	7ffafa93          	andi	s5,s5,2047
 10016f0:	00050913          	mv	s2,a0
 10016f4:	00060b93          	mv	s7,a2
 10016f8:	00068a13          	mv	s4,a3
 10016fc:	00c45413          	srli	s0,s0,0xc
 1001700:	01f5d993          	srli	s3,a1,0x1f
 1001704:	0a0a8063          	beqz	s5,10017a4 <__divdf3+0xf8>
 1001708:	7ff00793          	li	a5,2047
 100170c:	10fa8063          	beq	s5,a5,100180c <__divdf3+0x160>
 1001710:	01d55c93          	srli	s9,a0,0x1d
 1001714:	00341413          	slli	s0,s0,0x3
 1001718:	008cecb3          	or	s9,s9,s0
 100171c:	008007b7          	lui	a5,0x800
 1001720:	00fcecb3          	or	s9,s9,a5
 1001724:	00351493          	slli	s1,a0,0x3
 1001728:	c01a8a93          	addi	s5,s5,-1023
 100172c:	00000b13          	li	s6,0
 1001730:	014a5793          	srli	a5,s4,0x14
 1001734:	00ca1413          	slli	s0,s4,0xc
 1001738:	7ff7f793          	andi	a5,a5,2047
 100173c:	00c45413          	srli	s0,s0,0xc
 1001740:	01fa5a13          	srli	s4,s4,0x1f
 1001744:	0e078e63          	beqz	a5,1001840 <__divdf3+0x194>
 1001748:	7ff00713          	li	a4,2047
 100174c:	16e78263          	beq	a5,a4,10018b0 <__divdf3+0x204>
 1001750:	00341413          	slli	s0,s0,0x3
 1001754:	01dbd713          	srli	a4,s7,0x1d
 1001758:	00876733          	or	a4,a4,s0
 100175c:	00800437          	lui	s0,0x800
 1001760:	00876433          	or	s0,a4,s0
 1001764:	003b9593          	slli	a1,s7,0x3
 1001768:	c0178793          	addi	a5,a5,-1023 # 7ffc01 <__heap_size+0x7fec01>
 100176c:	00000713          	li	a4,0
 1001770:	40fa8ab3          	sub	s5,s5,a5
 1001774:	002b1793          	slli	a5,s6,0x2
 1001778:	00e7e7b3          	or	a5,a5,a4
 100177c:	fff78793          	addi	a5,a5,-1
 1001780:	00e00693          	li	a3,14
 1001784:	0149c933          	xor	s2,s3,s4
 1001788:	14f6ec63          	bltu	a3,a5,10018e0 <__divdf3+0x234>
 100178c:	010076b7          	lui	a3,0x1007
 1001790:	00279793          	slli	a5,a5,0x2
 1001794:	1ec68693          	addi	a3,a3,492 # 10071ec <hello_string+0x14>
 1001798:	00d787b3          	add	a5,a5,a3
 100179c:	0007a783          	lw	a5,0(a5)
 10017a0:	00078067          	jr	a5
 10017a4:	00a46cb3          	or	s9,s0,a0
 10017a8:	060c8c63          	beqz	s9,1001820 <__divdf3+0x174>
 10017ac:	04040063          	beqz	s0,10017ec <__divdf3+0x140>
 10017b0:	00040513          	mv	a0,s0
 10017b4:	719010ef          	jal	10036cc <__clzsi2>
 10017b8:	00050793          	mv	a5,a0
 10017bc:	ff550713          	addi	a4,a0,-11
 10017c0:	01d00c93          	li	s9,29
 10017c4:	ff878693          	addi	a3,a5,-8
 10017c8:	40ec8cb3          	sub	s9,s9,a4
 10017cc:	00d41433          	sll	s0,s0,a3
 10017d0:	01995cb3          	srl	s9,s2,s9
 10017d4:	008cecb3          	or	s9,s9,s0
 10017d8:	00d91433          	sll	s0,s2,a3
 10017dc:	c0d00a93          	li	s5,-1011
 10017e0:	40fa8ab3          	sub	s5,s5,a5
 10017e4:	00040493          	mv	s1,s0
 10017e8:	f45ff06f          	j	100172c <__divdf3+0x80>
 10017ec:	6e1010ef          	jal	10036cc <__clzsi2>
 10017f0:	01550713          	addi	a4,a0,21
 10017f4:	01c00693          	li	a3,28
 10017f8:	02050793          	addi	a5,a0,32
 10017fc:	fce6d2e3          	bge	a3,a4,10017c0 <__divdf3+0x114>
 1001800:	ff850513          	addi	a0,a0,-8
 1001804:	00a91cb3          	sll	s9,s2,a0
 1001808:	fd5ff06f          	j	10017dc <__divdf3+0x130>
 100180c:	00a46cb3          	or	s9,s0,a0
 1001810:	020c9063          	bnez	s9,1001830 <__divdf3+0x184>
 1001814:	00000493          	li	s1,0
 1001818:	00200b13          	li	s6,2
 100181c:	f15ff06f          	j	1001730 <__divdf3+0x84>
 1001820:	00000493          	li	s1,0
 1001824:	00000a93          	li	s5,0
 1001828:	00100b13          	li	s6,1
 100182c:	f05ff06f          	j	1001730 <__divdf3+0x84>
 1001830:	00050493          	mv	s1,a0
 1001834:	00040c93          	mv	s9,s0
 1001838:	00300b13          	li	s6,3
 100183c:	ef5ff06f          	j	1001730 <__divdf3+0x84>
 1001840:	017465b3          	or	a1,s0,s7
 1001844:	08058063          	beqz	a1,10018c4 <__divdf3+0x218>
 1001848:	04040263          	beqz	s0,100188c <__divdf3+0x1e0>
 100184c:	00040513          	mv	a0,s0
 1001850:	67d010ef          	jal	10036cc <__clzsi2>
 1001854:	00050693          	mv	a3,a0
 1001858:	ff550793          	addi	a5,a0,-11
 100185c:	01d00713          	li	a4,29
 1001860:	ff868613          	addi	a2,a3,-8
 1001864:	40f70733          	sub	a4,a4,a5
 1001868:	00c41433          	sll	s0,s0,a2
 100186c:	00ebd733          	srl	a4,s7,a4
 1001870:	00876733          	or	a4,a4,s0
 1001874:	00cb9433          	sll	s0,s7,a2
 1001878:	c0d00793          	li	a5,-1011
 100187c:	00040593          	mv	a1,s0
 1001880:	40d787b3          	sub	a5,a5,a3
 1001884:	00070413          	mv	s0,a4
 1001888:	ee5ff06f          	j	100176c <__divdf3+0xc0>
 100188c:	000b8513          	mv	a0,s7
 1001890:	63d010ef          	jal	10036cc <__clzsi2>
 1001894:	01550793          	addi	a5,a0,21
 1001898:	01c00713          	li	a4,28
 100189c:	02050693          	addi	a3,a0,32
 10018a0:	faf75ee3          	bge	a4,a5,100185c <__divdf3+0x1b0>
 10018a4:	ff850713          	addi	a4,a0,-8
 10018a8:	00eb9733          	sll	a4,s7,a4
 10018ac:	fcdff06f          	j	1001878 <__divdf3+0x1cc>
 10018b0:	017465b3          	or	a1,s0,s7
 10018b4:	02059063          	bnez	a1,10018d4 <__divdf3+0x228>
 10018b8:	00000413          	li	s0,0
 10018bc:	00200713          	li	a4,2
 10018c0:	eb1ff06f          	j	1001770 <__divdf3+0xc4>
 10018c4:	00000413          	li	s0,0
 10018c8:	00000793          	li	a5,0
 10018cc:	00100713          	li	a4,1
 10018d0:	ea1ff06f          	j	1001770 <__divdf3+0xc4>
 10018d4:	000b8593          	mv	a1,s7
 10018d8:	00300713          	li	a4,3
 10018dc:	e95ff06f          	j	1001770 <__divdf3+0xc4>
 10018e0:	01946663          	bltu	s0,s9,10018ec <__divdf3+0x240>
 10018e4:	408c9a63          	bne	s9,s0,1001cf8 <__divdf3+0x64c>
 10018e8:	40b4e863          	bltu	s1,a1,1001cf8 <__divdf3+0x64c>
 10018ec:	01fc9713          	slli	a4,s9,0x1f
 10018f0:	0014d793          	srli	a5,s1,0x1
 10018f4:	01f49c13          	slli	s8,s1,0x1f
 10018f8:	001cdc93          	srli	s9,s9,0x1
 10018fc:	00f764b3          	or	s1,a4,a5
 1001900:	00841793          	slli	a5,s0,0x8
 1001904:	0185db13          	srli	s6,a1,0x18
 1001908:	00fb6b33          	or	s6,s6,a5
 100190c:	0107dd13          	srli	s10,a5,0x10
 1001910:	010b1793          	slli	a5,s6,0x10
 1001914:	0107d793          	srli	a5,a5,0x10
 1001918:	00859b93          	slli	s7,a1,0x8
 100191c:	000c8513          	mv	a0,s9
 1001920:	000d0593          	mv	a1,s10
 1001924:	00f12623          	sw	a5,12(sp)
 1001928:	4f9010ef          	jal	1003620 <__hidden___udivsi3>
 100192c:	00050593          	mv	a1,a0
 1001930:	00050a13          	mv	s4,a0
 1001934:	010b1513          	slli	a0,s6,0x10
 1001938:	01055513          	srli	a0,a0,0x10
 100193c:	4b9010ef          	jal	10035f4 <__mulsi3>
 1001940:	00050993          	mv	s3,a0
 1001944:	000d0593          	mv	a1,s10
 1001948:	000c8513          	mv	a0,s9
 100194c:	51d010ef          	jal	1003668 <__umodsi3>
 1001950:	01051513          	slli	a0,a0,0x10
 1001954:	0104d793          	srli	a5,s1,0x10
 1001958:	00a7e7b3          	or	a5,a5,a0
 100195c:	0137fa63          	bgeu	a5,s3,1001970 <__divdf3+0x2c4>
 1001960:	00fb07b3          	add	a5,s6,a5
 1001964:	0167e463          	bltu	a5,s6,100196c <__divdf3+0x2c0>
 1001968:	3937ee63          	bltu	a5,s3,1001d04 <__divdf3+0x658>
 100196c:	fffa0a13          	addi	s4,s4,-1
 1001970:	413789b3          	sub	s3,a5,s3
 1001974:	000d0593          	mv	a1,s10
 1001978:	00098513          	mv	a0,s3
 100197c:	4a5010ef          	jal	1003620 <__hidden___udivsi3>
 1001980:	00050593          	mv	a1,a0
 1001984:	00050413          	mv	s0,a0
 1001988:	010b1513          	slli	a0,s6,0x10
 100198c:	01055513          	srli	a0,a0,0x10
 1001990:	465010ef          	jal	10035f4 <__mulsi3>
 1001994:	00050c93          	mv	s9,a0
 1001998:	000d0593          	mv	a1,s10
 100199c:	00098513          	mv	a0,s3
 10019a0:	4c9010ef          	jal	1003668 <__umodsi3>
 10019a4:	01049993          	slli	s3,s1,0x10
 10019a8:	01051513          	slli	a0,a0,0x10
 10019ac:	0109d993          	srli	s3,s3,0x10
 10019b0:	00a9e9b3          	or	s3,s3,a0
 10019b4:	0199fa63          	bgeu	s3,s9,10019c8 <__divdf3+0x31c>
 10019b8:	013b09b3          	add	s3,s6,s3
 10019bc:	0199f463          	bgeu	s3,s9,10019c4 <__divdf3+0x318>
 10019c0:	3569f863          	bgeu	s3,s6,1001d10 <__divdf3+0x664>
 10019c4:	fff40413          	addi	s0,s0,-1 # 7fffff <__heap_size+0x7fefff>
 10019c8:	010a1513          	slli	a0,s4,0x10
 10019cc:	00856733          	or	a4,a0,s0
 10019d0:	010b9693          	slli	a3,s7,0x10
 10019d4:	0106d693          	srli	a3,a3,0x10
 10019d8:	01071513          	slli	a0,a4,0x10
 10019dc:	419989b3          	sub	s3,s3,s9
 10019e0:	010bdd93          	srli	s11,s7,0x10
 10019e4:	01055513          	srli	a0,a0,0x10
 10019e8:	00d12623          	sw	a3,12(sp)
 10019ec:	00068593          	mv	a1,a3
 10019f0:	405010ef          	jal	10035f4 <__mulsi3>
 10019f4:	00050813          	mv	a6,a0
 10019f8:	01071513          	slli	a0,a4,0x10
 10019fc:	01055513          	srli	a0,a0,0x10
 1001a00:	000d8593          	mv	a1,s11
 1001a04:	3f1010ef          	jal	10035f4 <__mulsi3>
 1001a08:	010b9593          	slli	a1,s7,0x10
 1001a0c:	00050793          	mv	a5,a0
 1001a10:	0105d593          	srli	a1,a1,0x10
 1001a14:	01075513          	srli	a0,a4,0x10
 1001a18:	3dd010ef          	jal	10035f4 <__mulsi3>
 1001a1c:	00050893          	mv	a7,a0
 1001a20:	000d8593          	mv	a1,s11
 1001a24:	01075513          	srli	a0,a4,0x10
 1001a28:	3cd010ef          	jal	10035f4 <__mulsi3>
 1001a2c:	01085a13          	srli	s4,a6,0x10
 1001a30:	011787b3          	add	a5,a5,a7
 1001a34:	00fa0a33          	add	s4,s4,a5
 1001a38:	011a7663          	bgeu	s4,a7,1001a44 <__divdf3+0x398>
 1001a3c:	000107b7          	lui	a5,0x10
 1001a40:	00f50533          	add	a0,a0,a5
 1001a44:	010a5793          	srli	a5,s4,0x10
 1001a48:	01081813          	slli	a6,a6,0x10
 1001a4c:	010a1a13          	slli	s4,s4,0x10
 1001a50:	01085813          	srli	a6,a6,0x10
 1001a54:	00a78533          	add	a0,a5,a0
 1001a58:	010a0a33          	add	s4,s4,a6
 1001a5c:	00a9e663          	bltu	s3,a0,1001a68 <__divdf3+0x3bc>
 1001a60:	2aa99e63          	bne	s3,a0,1001d1c <__divdf3+0x670>
 1001a64:	2b4c7c63          	bgeu	s8,s4,1001d1c <__divdf3+0x670>
 1001a68:	017c07b3          	add	a5,s8,s7
 1001a6c:	0187b6b3          	sltu	a3,a5,s8
 1001a70:	01668633          	add	a2,a3,s6
 1001a74:	00c989b3          	add	s3,s3,a2
 1001a78:	fff70413          	addi	s0,a4,-1
 1001a7c:	00078c13          	mv	s8,a5
 1001a80:	013b6663          	bltu	s6,s3,1001a8c <__divdf3+0x3e0>
 1001a84:	02069463          	bnez	a3,1001aac <__divdf3+0x400>
 1001a88:	033b1263          	bne	s6,s3,1001aac <__divdf3+0x400>
 1001a8c:	00a9e663          	bltu	s3,a0,1001a98 <__divdf3+0x3ec>
 1001a90:	01351e63          	bne	a0,s3,1001aac <__divdf3+0x400>
 1001a94:	0147fc63          	bgeu	a5,s4,1001aac <__divdf3+0x400>
 1001a98:	00fb8c33          	add	s8,s7,a5
 1001a9c:	017c37b3          	sltu	a5,s8,s7
 1001aa0:	016787b3          	add	a5,a5,s6
 1001aa4:	ffe70413          	addi	s0,a4,-2
 1001aa8:	00f989b3          	add	s3,s3,a5
 1001aac:	414c0a33          	sub	s4,s8,s4
 1001ab0:	40a989b3          	sub	s3,s3,a0
 1001ab4:	014c37b3          	sltu	a5,s8,s4
 1001ab8:	40f989b3          	sub	s3,s3,a5
 1001abc:	fff00593          	li	a1,-1
 1001ac0:	193b0263          	beq	s6,s3,1001c44 <__divdf3+0x598>
 1001ac4:	000d0593          	mv	a1,s10
 1001ac8:	00098513          	mv	a0,s3
 1001acc:	355010ef          	jal	1003620 <__hidden___udivsi3>
 1001ad0:	00050593          	mv	a1,a0
 1001ad4:	00050493          	mv	s1,a0
 1001ad8:	010b1513          	slli	a0,s6,0x10
 1001adc:	01055513          	srli	a0,a0,0x10
 1001ae0:	315010ef          	jal	10035f4 <__mulsi3>
 1001ae4:	00050c13          	mv	s8,a0
 1001ae8:	000d0593          	mv	a1,s10
 1001aec:	00098513          	mv	a0,s3
 1001af0:	379010ef          	jal	1003668 <__umodsi3>
 1001af4:	01051513          	slli	a0,a0,0x10
 1001af8:	010a5713          	srli	a4,s4,0x10
 1001afc:	00a76733          	or	a4,a4,a0
 1001b00:	01877a63          	bgeu	a4,s8,1001b14 <__divdf3+0x468>
 1001b04:	00eb0733          	add	a4,s6,a4
 1001b08:	01676463          	bltu	a4,s6,1001b10 <__divdf3+0x464>
 1001b0c:	21876c63          	bltu	a4,s8,1001d24 <__divdf3+0x678>
 1001b10:	fff48493          	addi	s1,s1,-1
 1001b14:	418709b3          	sub	s3,a4,s8
 1001b18:	000d0593          	mv	a1,s10
 1001b1c:	00098513          	mv	a0,s3
 1001b20:	301010ef          	jal	1003620 <__hidden___udivsi3>
 1001b24:	00050593          	mv	a1,a0
 1001b28:	00050c13          	mv	s8,a0
 1001b2c:	010b1513          	slli	a0,s6,0x10
 1001b30:	01055513          	srli	a0,a0,0x10
 1001b34:	2c1010ef          	jal	10035f4 <__mulsi3>
 1001b38:	00050c93          	mv	s9,a0
 1001b3c:	000d0593          	mv	a1,s10
 1001b40:	00098513          	mv	a0,s3
 1001b44:	325010ef          	jal	1003668 <__umodsi3>
 1001b48:	010a1793          	slli	a5,s4,0x10
 1001b4c:	01051513          	slli	a0,a0,0x10
 1001b50:	0107d793          	srli	a5,a5,0x10
 1001b54:	00a7e7b3          	or	a5,a5,a0
 1001b58:	0197fa63          	bgeu	a5,s9,1001b6c <__divdf3+0x4c0>
 1001b5c:	00fb07b3          	add	a5,s6,a5
 1001b60:	0197f463          	bgeu	a5,s9,1001b68 <__divdf3+0x4bc>
 1001b64:	1d67f663          	bgeu	a5,s6,1001d30 <__divdf3+0x684>
 1001b68:	fffc0c13          	addi	s8,s8,-1
 1001b6c:	01049713          	slli	a4,s1,0x10
 1001b70:	01876733          	or	a4,a4,s8
 1001b74:	01071513          	slli	a0,a4,0x10
 1001b78:	010b9593          	slli	a1,s7,0x10
 1001b7c:	419787b3          	sub	a5,a5,s9
 1001b80:	01055513          	srli	a0,a0,0x10
 1001b84:	0105d593          	srli	a1,a1,0x10
 1001b88:	26d010ef          	jal	10035f4 <__mulsi3>
 1001b8c:	00050813          	mv	a6,a0
 1001b90:	01071513          	slli	a0,a4,0x10
 1001b94:	01055513          	srli	a0,a0,0x10
 1001b98:	000d8593          	mv	a1,s11
 1001b9c:	259010ef          	jal	10035f4 <__mulsi3>
 1001ba0:	010b9593          	slli	a1,s7,0x10
 1001ba4:	00050893          	mv	a7,a0
 1001ba8:	0105d593          	srli	a1,a1,0x10
 1001bac:	01075513          	srli	a0,a4,0x10
 1001bb0:	245010ef          	jal	10035f4 <__mulsi3>
 1001bb4:	00050313          	mv	t1,a0
 1001bb8:	000d8593          	mv	a1,s11
 1001bbc:	01075513          	srli	a0,a4,0x10
 1001bc0:	235010ef          	jal	10035f4 <__mulsi3>
 1001bc4:	01085693          	srli	a3,a6,0x10
 1001bc8:	006888b3          	add	a7,a7,t1
 1001bcc:	011686b3          	add	a3,a3,a7
 1001bd0:	0066f663          	bgeu	a3,t1,1001bdc <__divdf3+0x530>
 1001bd4:	00010637          	lui	a2,0x10
 1001bd8:	00c50533          	add	a0,a0,a2
 1001bdc:	0106d613          	srli	a2,a3,0x10
 1001be0:	01081813          	slli	a6,a6,0x10
 1001be4:	01069693          	slli	a3,a3,0x10
 1001be8:	01085813          	srli	a6,a6,0x10
 1001bec:	00a60533          	add	a0,a2,a0
 1001bf0:	010686b3          	add	a3,a3,a6
 1001bf4:	00a7e663          	bltu	a5,a0,1001c00 <__divdf3+0x554>
 1001bf8:	04a79463          	bne	a5,a0,1001c40 <__divdf3+0x594>
 1001bfc:	14068063          	beqz	a3,1001d3c <__divdf3+0x690>
 1001c00:	00fb0633          	add	a2,s6,a5
 1001c04:	fff70593          	addi	a1,a4,-1
 1001c08:	00060793          	mv	a5,a2
 1001c0c:	03666463          	bltu	a2,s6,1001c34 <__divdf3+0x588>
 1001c10:	00a66663          	bltu	a2,a0,1001c1c <__divdf3+0x570>
 1001c14:	02a61463          	bne	a2,a0,1001c3c <__divdf3+0x590>
 1001c18:	00dbfe63          	bgeu	s7,a3,1001c34 <__divdf3+0x588>
 1001c1c:	ffe70593          	addi	a1,a4,-2
 1001c20:	001b9713          	slli	a4,s7,0x1
 1001c24:	017737b3          	sltu	a5,a4,s7
 1001c28:	016787b3          	add	a5,a5,s6
 1001c2c:	00f607b3          	add	a5,a2,a5
 1001c30:	00070b93          	mv	s7,a4
 1001c34:	00db9463          	bne	s7,a3,1001c3c <__divdf3+0x590>
 1001c38:	00a78663          	beq	a5,a0,1001c44 <__divdf3+0x598>
 1001c3c:	00058713          	mv	a4,a1
 1001c40:	00176593          	ori	a1,a4,1
 1001c44:	3ffa8793          	addi	a5,s5,1023
 1001c48:	12f05e63          	blez	a5,1001d84 <__divdf3+0x6d8>
 1001c4c:	0075f713          	andi	a4,a1,7
 1001c50:	02070063          	beqz	a4,1001c70 <__divdf3+0x5c4>
 1001c54:	00f5f713          	andi	a4,a1,15
 1001c58:	00400693          	li	a3,4
 1001c5c:	00d70a63          	beq	a4,a3,1001c70 <__divdf3+0x5c4>
 1001c60:	00d58733          	add	a4,a1,a3
 1001c64:	00b736b3          	sltu	a3,a4,a1
 1001c68:	00d40433          	add	s0,s0,a3
 1001c6c:	00070593          	mv	a1,a4
 1001c70:	00741713          	slli	a4,s0,0x7
 1001c74:	00075a63          	bgez	a4,1001c88 <__divdf3+0x5dc>
 1001c78:	ff0007b7          	lui	a5,0xff000
 1001c7c:	fff78793          	addi	a5,a5,-1 # feffffff <__stack_end+0xfdfdffff>
 1001c80:	00f47433          	and	s0,s0,a5
 1001c84:	400a8793          	addi	a5,s5,1024
 1001c88:	7fe00713          	li	a4,2046
 1001c8c:	1cf74263          	blt	a4,a5,1001e50 <__divdf3+0x7a4>
 1001c90:	01d41713          	slli	a4,s0,0x1d
 1001c94:	0035d593          	srli	a1,a1,0x3
 1001c98:	00b76733          	or	a4,a4,a1
 1001c9c:	00345413          	srli	s0,s0,0x3
 1001ca0:	00c41413          	slli	s0,s0,0xc
 1001ca4:	00c45413          	srli	s0,s0,0xc
 1001ca8:	01479793          	slli	a5,a5,0x14
 1001cac:	04c12083          	lw	ra,76(sp)
 1001cb0:	0087e7b3          	or	a5,a5,s0
 1001cb4:	04812403          	lw	s0,72(sp)
 1001cb8:	01f91913          	slli	s2,s2,0x1f
 1001cbc:	04412483          	lw	s1,68(sp)
 1001cc0:	03c12983          	lw	s3,60(sp)
 1001cc4:	03812a03          	lw	s4,56(sp)
 1001cc8:	03412a83          	lw	s5,52(sp)
 1001ccc:	03012b03          	lw	s6,48(sp)
 1001cd0:	02c12b83          	lw	s7,44(sp)
 1001cd4:	02812c03          	lw	s8,40(sp)
 1001cd8:	02412c83          	lw	s9,36(sp)
 1001cdc:	02012d03          	lw	s10,32(sp)
 1001ce0:	01c12d83          	lw	s11,28(sp)
 1001ce4:	0127e5b3          	or	a1,a5,s2
 1001ce8:	00070513          	mv	a0,a4
 1001cec:	04012903          	lw	s2,64(sp)
 1001cf0:	05010113          	addi	sp,sp,80
 1001cf4:	00008067          	ret
 1001cf8:	fffa8a93          	addi	s5,s5,-1
 1001cfc:	00000c13          	li	s8,0
 1001d00:	c01ff06f          	j	1001900 <__divdf3+0x254>
 1001d04:	ffea0a13          	addi	s4,s4,-2
 1001d08:	016787b3          	add	a5,a5,s6
 1001d0c:	c65ff06f          	j	1001970 <__divdf3+0x2c4>
 1001d10:	ffe40413          	addi	s0,s0,-2
 1001d14:	016989b3          	add	s3,s3,s6
 1001d18:	cb1ff06f          	j	10019c8 <__divdf3+0x31c>
 1001d1c:	00070413          	mv	s0,a4
 1001d20:	d8dff06f          	j	1001aac <__divdf3+0x400>
 1001d24:	ffe48493          	addi	s1,s1,-2
 1001d28:	01670733          	add	a4,a4,s6
 1001d2c:	de9ff06f          	j	1001b14 <__divdf3+0x468>
 1001d30:	ffec0c13          	addi	s8,s8,-2
 1001d34:	016787b3          	add	a5,a5,s6
 1001d38:	e35ff06f          	j	1001b6c <__divdf3+0x4c0>
 1001d3c:	00000b93          	li	s7,0
 1001d40:	00070593          	mv	a1,a4
 1001d44:	ef1ff06f          	j	1001c34 <__divdf3+0x588>
 1001d48:	000a0913          	mv	s2,s4
 1001d4c:	00070b13          	mv	s6,a4
 1001d50:	00200793          	li	a5,2
 1001d54:	0efb0e63          	beq	s6,a5,1001e50 <__divdf3+0x7a4>
 1001d58:	00300793          	li	a5,3
 1001d5c:	0efb0063          	beq	s6,a5,1001e3c <__divdf3+0x790>
 1001d60:	00100793          	li	a5,1
 1001d64:	eefb10e3          	bne	s6,a5,1001c44 <__divdf3+0x598>
 1001d68:	00000413          	li	s0,0
 1001d6c:	00000713          	li	a4,0
 1001d70:	08c0006f          	j	1001dfc <__divdf3+0x750>
 1001d74:	00098913          	mv	s2,s3
 1001d78:	000c8413          	mv	s0,s9
 1001d7c:	00048593          	mv	a1,s1
 1001d80:	fd1ff06f          	j	1001d50 <__divdf3+0x6a4>
 1001d84:	08078063          	beqz	a5,1001e04 <__divdf3+0x758>
 1001d88:	fc900713          	li	a4,-55
 1001d8c:	fce7cee3          	blt	a5,a4,1001d68 <__divdf3+0x6bc>
 1001d90:	fe200713          	li	a4,-30
 1001d94:	06e7cc63          	blt	a5,a4,1001e0c <__divdf3+0x760>
 1001d98:	00100713          	li	a4,1
 1001d9c:	40f70733          	sub	a4,a4,a5
 1001da0:	41ea8a93          	addi	s5,s5,1054
 1001da4:	00e5d7b3          	srl	a5,a1,a4
 1001da8:	015595b3          	sll	a1,a1,s5
 1001dac:	00b035b3          	snez	a1,a1
 1001db0:	01541ab3          	sll	s5,s0,s5
 1001db4:	0155e5b3          	or	a1,a1,s5
 1001db8:	00b7e7b3          	or	a5,a5,a1
 1001dbc:	00e45433          	srl	s0,s0,a4
 1001dc0:	0077f713          	andi	a4,a5,7
 1001dc4:	02070063          	beqz	a4,1001de4 <__divdf3+0x738>
 1001dc8:	00f7f713          	andi	a4,a5,15
 1001dcc:	00400693          	li	a3,4
 1001dd0:	00d70a63          	beq	a4,a3,1001de4 <__divdf3+0x738>
 1001dd4:	00d78733          	add	a4,a5,a3
 1001dd8:	00f736b3          	sltu	a3,a4,a5
 1001ddc:	00d40433          	add	s0,s0,a3
 1001de0:	00070793          	mv	a5,a4
 1001de4:	00841713          	slli	a4,s0,0x8
 1001de8:	06074c63          	bltz	a4,1001e60 <__divdf3+0x7b4>
 1001dec:	01d41713          	slli	a4,s0,0x1d
 1001df0:	0037d793          	srli	a5,a5,0x3
 1001df4:	00f76733          	or	a4,a4,a5
 1001df8:	00345413          	srli	s0,s0,0x3
 1001dfc:	00000793          	li	a5,0
 1001e00:	ea1ff06f          	j	1001ca0 <__divdf3+0x5f4>
 1001e04:	00100713          	li	a4,1
 1001e08:	f99ff06f          	j	1001da0 <__divdf3+0x6f4>
 1001e0c:	fe100613          	li	a2,-31
 1001e10:	40f60733          	sub	a4,a2,a5
 1001e14:	00e45733          	srl	a4,s0,a4
 1001e18:	00000693          	li	a3,0
 1001e1c:	00c78663          	beq	a5,a2,1001e28 <__divdf3+0x77c>
 1001e20:	43ea8a93          	addi	s5,s5,1086
 1001e24:	015416b3          	sll	a3,s0,s5
 1001e28:	00b6e6b3          	or	a3,a3,a1
 1001e2c:	00d036b3          	snez	a3,a3
 1001e30:	00d767b3          	or	a5,a4,a3
 1001e34:	00000413          	li	s0,0
 1001e38:	f89ff06f          	j	1001dc0 <__divdf3+0x714>
 1001e3c:	00080437          	lui	s0,0x80
 1001e40:	00000713          	li	a4,0
 1001e44:	7ff00793          	li	a5,2047
 1001e48:	00000913          	li	s2,0
 1001e4c:	e55ff06f          	j	1001ca0 <__divdf3+0x5f4>
 1001e50:	00000413          	li	s0,0
 1001e54:	00000713          	li	a4,0
 1001e58:	7ff00793          	li	a5,2047
 1001e5c:	e45ff06f          	j	1001ca0 <__divdf3+0x5f4>
 1001e60:	00000413          	li	s0,0
 1001e64:	00000713          	li	a4,0
 1001e68:	00100793          	li	a5,1
 1001e6c:	e35ff06f          	j	1001ca0 <__divdf3+0x5f4>

01001e70 <__eqdf2>:
 1001e70:	001007b7          	lui	a5,0x100
 1001e74:	0145d813          	srli	a6,a1,0x14
 1001e78:	fff78793          	addi	a5,a5,-1 # fffff <__heap_size+0xfefff>
 1001e7c:	0146d313          	srli	t1,a3,0x14
 1001e80:	7ff87813          	andi	a6,a6,2047
 1001e84:	7ff00e93          	li	t4,2047
 1001e88:	00b7f733          	and	a4,a5,a1
 1001e8c:	00050893          	mv	a7,a0
 1001e90:	01f5df93          	srli	t6,a1,0x1f
 1001e94:	00d7f7b3          	and	a5,a5,a3
 1001e98:	7ff37313          	andi	t1,t1,2047
 1001e9c:	01f6df13          	srli	t5,a3,0x1f
 1001ea0:	01d81863          	bne	a6,t4,1001eb0 <__eqdf2+0x40>
 1001ea4:	00a76e33          	or	t3,a4,a0
 1001ea8:	00100513          	li	a0,1
 1001eac:	040e1263          	bnez	t3,1001ef0 <__eqdf2+0x80>
 1001eb0:	01d31863          	bne	t1,t4,1001ec0 <__eqdf2+0x50>
 1001eb4:	00c7e7b3          	or	a5,a5,a2
 1001eb8:	00100513          	li	a0,1
 1001ebc:	02079a63          	bnez	a5,1001ef0 <__eqdf2+0x80>
 1001ec0:	00b6c6b3          	xor	a3,a3,a1
 1001ec4:	00169693          	slli	a3,a3,0x1
 1001ec8:	02069263          	bnez	a3,1001eec <__eqdf2+0x7c>
 1001ecc:	03161063          	bne	a2,a7,1001eec <__eqdf2+0x7c>
 1001ed0:	00000513          	li	a0,0
 1001ed4:	01ef8e63          	beq	t6,t5,1001ef0 <__eqdf2+0x80>
 1001ed8:	00100513          	li	a0,1
 1001edc:	00081a63          	bnez	a6,1001ef0 <__eqdf2+0x80>
 1001ee0:	01176733          	or	a4,a4,a7
 1001ee4:	00e03533          	snez	a0,a4
 1001ee8:	00008067          	ret
 1001eec:	00100513          	li	a0,1
 1001ef0:	00008067          	ret

01001ef4 <__gedf2>:
 1001ef4:	0145d893          	srli	a7,a1,0x14
 1001ef8:	00100737          	lui	a4,0x100
 1001efc:	fff70713          	addi	a4,a4,-1 # fffff <__heap_size+0xfefff>
 1001f00:	0146d813          	srli	a6,a3,0x14
 1001f04:	7ff8f893          	andi	a7,a7,2047
 1001f08:	7ff00793          	li	a5,2047
 1001f0c:	00b77333          	and	t1,a4,a1
 1001f10:	7ff87813          	andi	a6,a6,2047
 1001f14:	00d77733          	and	a4,a4,a3
 1001f18:	01f5d593          	srli	a1,a1,0x1f
 1001f1c:	01f6d693          	srli	a3,a3,0x1f
 1001f20:	02f88063          	beq	a7,a5,1001f40 <__gedf2+0x4c>
 1001f24:	7ff00e13          	li	t3,2047
 1001f28:	00080793          	mv	a5,a6
 1001f2c:	03c81463          	bne	a6,t3,1001f54 <__gedf2+0x60>
 1001f30:	00c76e33          	or	t3,a4,a2
 1001f34:	020e0063          	beqz	t3,1001f54 <__gedf2+0x60>
 1001f38:	ffe00793          	li	a5,-2
 1001f3c:	0100006f          	j	1001f4c <__gedf2+0x58>
 1001f40:	00a36e33          	or	t3,t1,a0
 1001f44:	ffe00793          	li	a5,-2
 1001f48:	fc0e0ee3          	beqz	t3,1001f24 <__gedf2+0x30>
 1001f4c:	00078513          	mv	a0,a5
 1001f50:	00008067          	ret
 1001f54:	00000e13          	li	t3,0
 1001f58:	00089663          	bnez	a7,1001f64 <__gedf2+0x70>
 1001f5c:	00a36e33          	or	t3,t1,a0
 1001f60:	001e3e13          	seqz	t3,t3
 1001f64:	04081863          	bnez	a6,1001fb4 <__gedf2+0xc0>
 1001f68:	00c76eb3          	or	t4,a4,a2
 1001f6c:	000e0a63          	beqz	t3,1001f80 <__gedf2+0x8c>
 1001f70:	fc0e8ee3          	beqz	t4,1001f4c <__gedf2+0x58>
 1001f74:	00169793          	slli	a5,a3,0x1
 1001f78:	fff78793          	addi	a5,a5,-1
 1001f7c:	fd1ff06f          	j	1001f4c <__gedf2+0x58>
 1001f80:	020e9c63          	bnez	t4,1001fb8 <__gedf2+0xc4>
 1001f84:	40b005b3          	neg	a1,a1
 1001f88:	0015e793          	ori	a5,a1,1
 1001f8c:	fc1ff06f          	j	1001f4c <__gedf2+0x58>
 1001f90:	ff08c2e3          	blt	a7,a6,1001f74 <__gedf2+0x80>
 1001f94:	fe6768e3          	bltu	a4,t1,1001f84 <__gedf2+0x90>
 1001f98:	00a67463          	bgeu	a2,a0,1001fa0 <__gedf2+0xac>
 1001f9c:	fee304e3          	beq	t1,a4,1001f84 <__gedf2+0x90>
 1001fa0:	00c56663          	bltu	a0,a2,1001fac <__gedf2+0xb8>
 1001fa4:	00000793          	li	a5,0
 1001fa8:	fae372e3          	bgeu	t1,a4,1001f4c <__gedf2+0x58>
 1001fac:	00159793          	slli	a5,a1,0x1
 1001fb0:	fc9ff06f          	j	1001f78 <__gedf2+0x84>
 1001fb4:	fc0e10e3          	bnez	t3,1001f74 <__gedf2+0x80>
 1001fb8:	fcb696e3          	bne	a3,a1,1001f84 <__gedf2+0x90>
 1001fbc:	fd185ae3          	bge	a6,a7,1001f90 <__gedf2+0x9c>
 1001fc0:	40d006b3          	neg	a3,a3
 1001fc4:	0016e793          	ori	a5,a3,1
 1001fc8:	f85ff06f          	j	1001f4c <__gedf2+0x58>

01001fcc <__ledf2>:
 1001fcc:	0145d893          	srli	a7,a1,0x14
 1001fd0:	00100737          	lui	a4,0x100
 1001fd4:	fff70713          	addi	a4,a4,-1 # fffff <__heap_size+0xfefff>
 1001fd8:	0146d813          	srli	a6,a3,0x14
 1001fdc:	7ff8f893          	andi	a7,a7,2047
 1001fe0:	7ff00793          	li	a5,2047
 1001fe4:	00b77333          	and	t1,a4,a1
 1001fe8:	7ff87813          	andi	a6,a6,2047
 1001fec:	00d77733          	and	a4,a4,a3
 1001ff0:	01f5d593          	srli	a1,a1,0x1f
 1001ff4:	01f6d693          	srli	a3,a3,0x1f
 1001ff8:	02f88063          	beq	a7,a5,1002018 <__ledf2+0x4c>
 1001ffc:	7ff00e13          	li	t3,2047
 1002000:	00080793          	mv	a5,a6
 1002004:	03c81463          	bne	a6,t3,100202c <__ledf2+0x60>
 1002008:	00c76e33          	or	t3,a4,a2
 100200c:	020e0063          	beqz	t3,100202c <__ledf2+0x60>
 1002010:	00200793          	li	a5,2
 1002014:	0100006f          	j	1002024 <__ledf2+0x58>
 1002018:	00a36e33          	or	t3,t1,a0
 100201c:	00200793          	li	a5,2
 1002020:	fc0e0ee3          	beqz	t3,1001ffc <__ledf2+0x30>
 1002024:	00078513          	mv	a0,a5
 1002028:	00008067          	ret
 100202c:	00000e13          	li	t3,0
 1002030:	00089663          	bnez	a7,100203c <__ledf2+0x70>
 1002034:	00a36e33          	or	t3,t1,a0
 1002038:	001e3e13          	seqz	t3,t3
 100203c:	04081863          	bnez	a6,100208c <__ledf2+0xc0>
 1002040:	00c76eb3          	or	t4,a4,a2
 1002044:	000e0a63          	beqz	t3,1002058 <__ledf2+0x8c>
 1002048:	fc0e8ee3          	beqz	t4,1002024 <__ledf2+0x58>
 100204c:	00169793          	slli	a5,a3,0x1
 1002050:	fff78793          	addi	a5,a5,-1
 1002054:	fd1ff06f          	j	1002024 <__ledf2+0x58>
 1002058:	020e9c63          	bnez	t4,1002090 <__ledf2+0xc4>
 100205c:	40b005b3          	neg	a1,a1
 1002060:	0015e793          	ori	a5,a1,1
 1002064:	fc1ff06f          	j	1002024 <__ledf2+0x58>
 1002068:	ff08c2e3          	blt	a7,a6,100204c <__ledf2+0x80>
 100206c:	fe6768e3          	bltu	a4,t1,100205c <__ledf2+0x90>
 1002070:	00a67463          	bgeu	a2,a0,1002078 <__ledf2+0xac>
 1002074:	fee304e3          	beq	t1,a4,100205c <__ledf2+0x90>
 1002078:	00c56663          	bltu	a0,a2,1002084 <__ledf2+0xb8>
 100207c:	00000793          	li	a5,0
 1002080:	fae372e3          	bgeu	t1,a4,1002024 <__ledf2+0x58>
 1002084:	00159793          	slli	a5,a1,0x1
 1002088:	fc9ff06f          	j	1002050 <__ledf2+0x84>
 100208c:	fc0e10e3          	bnez	t3,100204c <__ledf2+0x80>
 1002090:	fcb696e3          	bne	a3,a1,100205c <__ledf2+0x90>
 1002094:	fd185ae3          	bge	a6,a7,1002068 <__ledf2+0x9c>
 1002098:	40d006b3          	neg	a3,a3
 100209c:	0016e793          	ori	a5,a3,1
 10020a0:	f85ff06f          	j	1002024 <__ledf2+0x58>

010020a4 <__muldf3>:
 10020a4:	fd010113          	addi	sp,sp,-48
 10020a8:	01312e23          	sw	s3,28(sp)
 10020ac:	0145d993          	srli	s3,a1,0x14
 10020b0:	02812423          	sw	s0,40(sp)
 10020b4:	02912223          	sw	s1,36(sp)
 10020b8:	01412c23          	sw	s4,24(sp)
 10020bc:	01512a23          	sw	s5,20(sp)
 10020c0:	01712623          	sw	s7,12(sp)
 10020c4:	00c59493          	slli	s1,a1,0xc
 10020c8:	02112623          	sw	ra,44(sp)
 10020cc:	03212023          	sw	s2,32(sp)
 10020d0:	01612823          	sw	s6,16(sp)
 10020d4:	7ff9f993          	andi	s3,s3,2047
 10020d8:	00050413          	mv	s0,a0
 10020dc:	00060b93          	mv	s7,a2
 10020e0:	00068a13          	mv	s4,a3
 10020e4:	00c4d493          	srli	s1,s1,0xc
 10020e8:	01f5da93          	srli	s5,a1,0x1f
 10020ec:	0c098263          	beqz	s3,10021b0 <__muldf3+0x10c>
 10020f0:	7ff00793          	li	a5,2047
 10020f4:	12f98463          	beq	s3,a5,100221c <__muldf3+0x178>
 10020f8:	00349493          	slli	s1,s1,0x3
 10020fc:	01d55793          	srli	a5,a0,0x1d
 1002100:	0097e7b3          	or	a5,a5,s1
 1002104:	008004b7          	lui	s1,0x800
 1002108:	0097e4b3          	or	s1,a5,s1
 100210c:	00351913          	slli	s2,a0,0x3
 1002110:	c0198993          	addi	s3,s3,-1023
 1002114:	00000b13          	li	s6,0
 1002118:	014a5793          	srli	a5,s4,0x14
 100211c:	00ca1413          	slli	s0,s4,0xc
 1002120:	7ff7f793          	andi	a5,a5,2047
 1002124:	00c45413          	srli	s0,s0,0xc
 1002128:	01fa5a13          	srli	s4,s4,0x1f
 100212c:	12078063          	beqz	a5,100224c <__muldf3+0x1a8>
 1002130:	7ff00713          	li	a4,2047
 1002134:	18e78463          	beq	a5,a4,10022bc <__muldf3+0x218>
 1002138:	00341413          	slli	s0,s0,0x3
 100213c:	01dbd713          	srli	a4,s7,0x1d
 1002140:	00876733          	or	a4,a4,s0
 1002144:	00800437          	lui	s0,0x800
 1002148:	00876433          	or	s0,a4,s0
 100214c:	003b9593          	slli	a1,s7,0x3
 1002150:	c0178793          	addi	a5,a5,-1023
 1002154:	00000693          	li	a3,0
 1002158:	00f989b3          	add	s3,s3,a5
 100215c:	002b1793          	slli	a5,s6,0x2
 1002160:	00d7e7b3          	or	a5,a5,a3
 1002164:	00a00713          	li	a4,10
 1002168:	00198893          	addi	a7,s3,1
 100216c:	1af74263          	blt	a4,a5,1002310 <__muldf3+0x26c>
 1002170:	00200613          	li	a2,2
 1002174:	014ac833          	xor	a6,s5,s4
 1002178:	00100713          	li	a4,1
 100217c:	16f64863          	blt	a2,a5,10022ec <__muldf3+0x248>
 1002180:	fff78793          	addi	a5,a5,-1
 1002184:	1af76663          	bltu	a4,a5,1002330 <__muldf3+0x28c>
 1002188:	00068b13          	mv	s6,a3
 100218c:	00200793          	li	a5,2
 1002190:	58fb0863          	beq	s6,a5,1002720 <__muldf3+0x67c>
 1002194:	00300793          	li	a5,3
 1002198:	56fb0e63          	beq	s6,a5,1002714 <__muldf3+0x670>
 100219c:	00100793          	li	a5,1
 10021a0:	40fb1063          	bne	s6,a5,10025a0 <__muldf3+0x4fc>
 10021a4:	00000413          	li	s0,0
 10021a8:	00000713          	li	a4,0
 10021ac:	5180006f          	j	10026c4 <__muldf3+0x620>
 10021b0:	00a4e933          	or	s2,s1,a0
 10021b4:	06090e63          	beqz	s2,1002230 <__muldf3+0x18c>
 10021b8:	04048263          	beqz	s1,10021fc <__muldf3+0x158>
 10021bc:	00048513          	mv	a0,s1
 10021c0:	50c010ef          	jal	10036cc <__clzsi2>
 10021c4:	00050713          	mv	a4,a0
 10021c8:	ff550693          	addi	a3,a0,-11
 10021cc:	01d00793          	li	a5,29
 10021d0:	ff870613          	addi	a2,a4,-8
 10021d4:	40d787b3          	sub	a5,a5,a3
 10021d8:	00c494b3          	sll	s1,s1,a2
 10021dc:	00f457b3          	srl	a5,s0,a5
 10021e0:	0097e7b3          	or	a5,a5,s1
 10021e4:	00c414b3          	sll	s1,s0,a2
 10021e8:	c0d00993          	li	s3,-1011
 10021ec:	00048913          	mv	s2,s1
 10021f0:	40e989b3          	sub	s3,s3,a4
 10021f4:	00078493          	mv	s1,a5
 10021f8:	f1dff06f          	j	1002114 <__muldf3+0x70>
 10021fc:	4d0010ef          	jal	10036cc <__clzsi2>
 1002200:	01550693          	addi	a3,a0,21
 1002204:	01c00793          	li	a5,28
 1002208:	02050713          	addi	a4,a0,32
 100220c:	fcd7d0e3          	bge	a5,a3,10021cc <__muldf3+0x128>
 1002210:	ff850793          	addi	a5,a0,-8
 1002214:	00f417b3          	sll	a5,s0,a5
 1002218:	fd1ff06f          	j	10021e8 <__muldf3+0x144>
 100221c:	00a4e933          	or	s2,s1,a0
 1002220:	02091063          	bnez	s2,1002240 <__muldf3+0x19c>
 1002224:	00000493          	li	s1,0
 1002228:	00200b13          	li	s6,2
 100222c:	eedff06f          	j	1002118 <__muldf3+0x74>
 1002230:	00000493          	li	s1,0
 1002234:	00000993          	li	s3,0
 1002238:	00100b13          	li	s6,1
 100223c:	eddff06f          	j	1002118 <__muldf3+0x74>
 1002240:	00050913          	mv	s2,a0
 1002244:	00300b13          	li	s6,3
 1002248:	ed1ff06f          	j	1002118 <__muldf3+0x74>
 100224c:	017465b3          	or	a1,s0,s7
 1002250:	08058063          	beqz	a1,10022d0 <__muldf3+0x22c>
 1002254:	04040263          	beqz	s0,1002298 <__muldf3+0x1f4>
 1002258:	00040513          	mv	a0,s0
 100225c:	470010ef          	jal	10036cc <__clzsi2>
 1002260:	00050693          	mv	a3,a0
 1002264:	ff550793          	addi	a5,a0,-11
 1002268:	01d00713          	li	a4,29
 100226c:	ff868613          	addi	a2,a3,-8
 1002270:	40f70733          	sub	a4,a4,a5
 1002274:	00c41433          	sll	s0,s0,a2
 1002278:	00ebd733          	srl	a4,s7,a4
 100227c:	00876733          	or	a4,a4,s0
 1002280:	00cb9433          	sll	s0,s7,a2
 1002284:	c0d00793          	li	a5,-1011
 1002288:	00040593          	mv	a1,s0
 100228c:	40d787b3          	sub	a5,a5,a3
 1002290:	00070413          	mv	s0,a4
 1002294:	ec1ff06f          	j	1002154 <__muldf3+0xb0>
 1002298:	000b8513          	mv	a0,s7
 100229c:	430010ef          	jal	10036cc <__clzsi2>
 10022a0:	01550793          	addi	a5,a0,21
 10022a4:	01c00713          	li	a4,28
 10022a8:	02050693          	addi	a3,a0,32
 10022ac:	faf75ee3          	bge	a4,a5,1002268 <__muldf3+0x1c4>
 10022b0:	ff850713          	addi	a4,a0,-8
 10022b4:	00eb9733          	sll	a4,s7,a4
 10022b8:	fcdff06f          	j	1002284 <__muldf3+0x1e0>
 10022bc:	017465b3          	or	a1,s0,s7
 10022c0:	02059063          	bnez	a1,10022e0 <__muldf3+0x23c>
 10022c4:	00000413          	li	s0,0
 10022c8:	00200693          	li	a3,2
 10022cc:	e8dff06f          	j	1002158 <__muldf3+0xb4>
 10022d0:	00000413          	li	s0,0
 10022d4:	00000793          	li	a5,0
 10022d8:	00100693          	li	a3,1
 10022dc:	e7dff06f          	j	1002158 <__muldf3+0xb4>
 10022e0:	000b8593          	mv	a1,s7
 10022e4:	00300693          	li	a3,3
 10022e8:	e71ff06f          	j	1002158 <__muldf3+0xb4>
 10022ec:	00f717b3          	sll	a5,a4,a5
 10022f0:	5307f713          	andi	a4,a5,1328
 10022f4:	02071863          	bnez	a4,1002324 <__muldf3+0x280>
 10022f8:	2407f613          	andi	a2,a5,576
 10022fc:	40061463          	bnez	a2,1002704 <__muldf3+0x660>
 1002300:	0887f793          	andi	a5,a5,136
 1002304:	02078663          	beqz	a5,1002330 <__muldf3+0x28c>
 1002308:	000a0813          	mv	a6,s4
 100230c:	e7dff06f          	j	1002188 <__muldf3+0xe4>
 1002310:	00f00713          	li	a4,15
 1002314:	40e78063          	beq	a5,a4,1002714 <__muldf3+0x670>
 1002318:	00b00713          	li	a4,11
 100231c:	000a8813          	mv	a6,s5
 1002320:	fee784e3          	beq	a5,a4,1002308 <__muldf3+0x264>
 1002324:	00048413          	mv	s0,s1
 1002328:	00090593          	mv	a1,s2
 100232c:	e61ff06f          	j	100218c <__muldf3+0xe8>
 1002330:	01095793          	srli	a5,s2,0x10
 1002334:	01059f13          	slli	t5,a1,0x10
 1002338:	01091913          	slli	s2,s2,0x10
 100233c:	01095913          	srli	s2,s2,0x10
 1002340:	010f5f13          	srli	t5,t5,0x10
 1002344:	0105de93          	srli	t4,a1,0x10
 1002348:	00090513          	mv	a0,s2
 100234c:	000f0593          	mv	a1,t5
 1002350:	2a4010ef          	jal	10035f4 <__mulsi3>
 1002354:	00050e13          	mv	t3,a0
 1002358:	000e8593          	mv	a1,t4
 100235c:	00090513          	mv	a0,s2
 1002360:	294010ef          	jal	10035f4 <__mulsi3>
 1002364:	00050f93          	mv	t6,a0
 1002368:	000f0593          	mv	a1,t5
 100236c:	00078513          	mv	a0,a5
 1002370:	284010ef          	jal	10035f4 <__mulsi3>
 1002374:	00050293          	mv	t0,a0
 1002378:	000e8593          	mv	a1,t4
 100237c:	00078513          	mv	a0,a5
 1002380:	274010ef          	jal	10035f4 <__mulsi3>
 1002384:	010e5313          	srli	t1,t3,0x10
 1002388:	005f8fb3          	add	t6,t6,t0
 100238c:	01f30333          	add	t1,t1,t6
 1002390:	00050713          	mv	a4,a0
 1002394:	00537663          	bgeu	t1,t0,10023a0 <__muldf3+0x2fc>
 1002398:	000106b7          	lui	a3,0x10
 100239c:	00d50733          	add	a4,a0,a3
 10023a0:	010e1e13          	slli	t3,t3,0x10
 10023a4:	01035393          	srli	t2,t1,0x10
 10023a8:	010e5e13          	srli	t3,t3,0x10
 10023ac:	01031313          	slli	t1,t1,0x10
 10023b0:	01c30333          	add	t1,t1,t3
 10023b4:	01045e13          	srli	t3,s0,0x10
 10023b8:	01041413          	slli	s0,s0,0x10
 10023bc:	01045413          	srli	s0,s0,0x10
 10023c0:	00090513          	mv	a0,s2
 10023c4:	00040593          	mv	a1,s0
 10023c8:	22c010ef          	jal	10035f4 <__mulsi3>
 10023cc:	00050293          	mv	t0,a0
 10023d0:	000e0593          	mv	a1,t3
 10023d4:	00090513          	mv	a0,s2
 10023d8:	21c010ef          	jal	10035f4 <__mulsi3>
 10023dc:	00050f93          	mv	t6,a0
 10023e0:	00040593          	mv	a1,s0
 10023e4:	00078513          	mv	a0,a5
 10023e8:	20c010ef          	jal	10035f4 <__mulsi3>
 10023ec:	00050913          	mv	s2,a0
 10023f0:	000e0593          	mv	a1,t3
 10023f4:	00078513          	mv	a0,a5
 10023f8:	1fc010ef          	jal	10035f4 <__mulsi3>
 10023fc:	0102d793          	srli	a5,t0,0x10
 1002400:	012f8fb3          	add	t6,t6,s2
 1002404:	01f787b3          	add	a5,a5,t6
 1002408:	0127f663          	bgeu	a5,s2,1002414 <__muldf3+0x370>
 100240c:	000106b7          	lui	a3,0x10
 1002410:	00d50533          	add	a0,a0,a3
 1002414:	01029293          	slli	t0,t0,0x10
 1002418:	0107d593          	srli	a1,a5,0x10
 100241c:	0102d293          	srli	t0,t0,0x10
 1002420:	0104d913          	srli	s2,s1,0x10
 1002424:	01079793          	slli	a5,a5,0x10
 1002428:	01049493          	slli	s1,s1,0x10
 100242c:	005787b3          	add	a5,a5,t0
 1002430:	0104d493          	srli	s1,s1,0x10
 1002434:	00a58fb3          	add	t6,a1,a0
 1002438:	00f383b3          	add	t2,t2,a5
 100243c:	00048513          	mv	a0,s1
 1002440:	000f0593          	mv	a1,t5
 1002444:	1b0010ef          	jal	10035f4 <__mulsi3>
 1002448:	00050293          	mv	t0,a0
 100244c:	000e8593          	mv	a1,t4
 1002450:	00048513          	mv	a0,s1
 1002454:	1a0010ef          	jal	10035f4 <__mulsi3>
 1002458:	00050a13          	mv	s4,a0
 100245c:	000f0593          	mv	a1,t5
 1002460:	00090513          	mv	a0,s2
 1002464:	190010ef          	jal	10035f4 <__mulsi3>
 1002468:	00050f13          	mv	t5,a0
 100246c:	000e8593          	mv	a1,t4
 1002470:	00090513          	mv	a0,s2
 1002474:	180010ef          	jal	10035f4 <__mulsi3>
 1002478:	0102d613          	srli	a2,t0,0x10
 100247c:	01ea0a33          	add	s4,s4,t5
 1002480:	01460633          	add	a2,a2,s4
 1002484:	01e67663          	bgeu	a2,t5,1002490 <__muldf3+0x3ec>
 1002488:	000106b7          	lui	a3,0x10
 100248c:	00d50533          	add	a0,a0,a3
 1002490:	01029293          	slli	t0,t0,0x10
 1002494:	01065593          	srli	a1,a2,0x10
 1002498:	0102d293          	srli	t0,t0,0x10
 100249c:	01061613          	slli	a2,a2,0x10
 10024a0:	00a58eb3          	add	t4,a1,a0
 10024a4:	00560f33          	add	t5,a2,t0
 10024a8:	00048513          	mv	a0,s1
 10024ac:	00040593          	mv	a1,s0
 10024b0:	144010ef          	jal	10035f4 <__mulsi3>
 10024b4:	00050293          	mv	t0,a0
 10024b8:	000e0593          	mv	a1,t3
 10024bc:	00048513          	mv	a0,s1
 10024c0:	134010ef          	jal	10035f4 <__mulsi3>
 10024c4:	00050493          	mv	s1,a0
 10024c8:	00040593          	mv	a1,s0
 10024cc:	00090513          	mv	a0,s2
 10024d0:	124010ef          	jal	10035f4 <__mulsi3>
 10024d4:	00050413          	mv	s0,a0
 10024d8:	000e0593          	mv	a1,t3
 10024dc:	00090513          	mv	a0,s2
 10024e0:	114010ef          	jal	10035f4 <__mulsi3>
 10024e4:	0102d613          	srli	a2,t0,0x10
 10024e8:	008484b3          	add	s1,s1,s0
 10024ec:	00960633          	add	a2,a2,s1
 10024f0:	00050e13          	mv	t3,a0
 10024f4:	00867663          	bgeu	a2,s0,1002500 <__muldf3+0x45c>
 10024f8:	000106b7          	lui	a3,0x10
 10024fc:	00d50e33          	add	t3,a0,a3
 1002500:	01029293          	slli	t0,t0,0x10
 1002504:	01061693          	slli	a3,a2,0x10
 1002508:	0102d293          	srli	t0,t0,0x10
 100250c:	00770733          	add	a4,a4,t2
 1002510:	005686b3          	add	a3,a3,t0
 1002514:	01f685b3          	add	a1,a3,t6
 1002518:	00f737b3          	sltu	a5,a4,a5
 100251c:	00f587b3          	add	a5,a1,a5
 1002520:	00d5b6b3          	sltu	a3,a1,a3
 1002524:	00b7b5b3          	sltu	a1,a5,a1
 1002528:	00b6e6b3          	or	a3,a3,a1
 100252c:	01065613          	srli	a2,a2,0x10
 1002530:	00c686b3          	add	a3,a3,a2
 1002534:	01e70633          	add	a2,a4,t5
 1002538:	01d785b3          	add	a1,a5,t4
 100253c:	00e63733          	sltu	a4,a2,a4
 1002540:	00e58733          	add	a4,a1,a4
 1002544:	00f5b7b3          	sltu	a5,a1,a5
 1002548:	00b735b3          	sltu	a1,a4,a1
 100254c:	00b7e7b3          	or	a5,a5,a1
 1002550:	00961593          	slli	a1,a2,0x9
 1002554:	00d787b3          	add	a5,a5,a3
 1002558:	0065e5b3          	or	a1,a1,t1
 100255c:	01c787b3          	add	a5,a5,t3
 1002560:	00b035b3          	snez	a1,a1
 1002564:	01765613          	srli	a2,a2,0x17
 1002568:	00979793          	slli	a5,a5,0x9
 100256c:	01775413          	srli	s0,a4,0x17
 1002570:	00c5e5b3          	or	a1,a1,a2
 1002574:	00971713          	slli	a4,a4,0x9
 1002578:	00e5e5b3          	or	a1,a1,a4
 100257c:	00779713          	slli	a4,a5,0x7
 1002580:	0087e433          	or	s0,a5,s0
 1002584:	0c075063          	bgez	a4,1002644 <__muldf3+0x5a0>
 1002588:	0015d793          	srli	a5,a1,0x1
 100258c:	0015f593          	andi	a1,a1,1
 1002590:	00b7e7b3          	or	a5,a5,a1
 1002594:	01f41593          	slli	a1,s0,0x1f
 1002598:	00b7e5b3          	or	a1,a5,a1
 100259c:	00145413          	srli	s0,s0,0x1
 10025a0:	3ff88793          	addi	a5,a7,1023
 10025a4:	0af05463          	blez	a5,100264c <__muldf3+0x5a8>
 10025a8:	0075f713          	andi	a4,a1,7
 10025ac:	02070063          	beqz	a4,10025cc <__muldf3+0x528>
 10025b0:	00f5f713          	andi	a4,a1,15
 10025b4:	00400693          	li	a3,4
 10025b8:	00d70a63          	beq	a4,a3,10025cc <__muldf3+0x528>
 10025bc:	00d58733          	add	a4,a1,a3
 10025c0:	00b736b3          	sltu	a3,a4,a1
 10025c4:	00d40433          	add	s0,s0,a3
 10025c8:	00070593          	mv	a1,a4
 10025cc:	00741713          	slli	a4,s0,0x7
 10025d0:	00075a63          	bgez	a4,10025e4 <__muldf3+0x540>
 10025d4:	ff0007b7          	lui	a5,0xff000
 10025d8:	fff78793          	addi	a5,a5,-1 # feffffff <__stack_end+0xfdfdffff>
 10025dc:	00f47433          	and	s0,s0,a5
 10025e0:	40088793          	addi	a5,a7,1024
 10025e4:	7fe00713          	li	a4,2046
 10025e8:	12f74c63          	blt	a4,a5,1002720 <__muldf3+0x67c>
 10025ec:	01d41713          	slli	a4,s0,0x1d
 10025f0:	0035d593          	srli	a1,a1,0x3
 10025f4:	00b76733          	or	a4,a4,a1
 10025f8:	00345413          	srli	s0,s0,0x3
 10025fc:	00c41413          	slli	s0,s0,0xc
 1002600:	00c45413          	srli	s0,s0,0xc
 1002604:	01479793          	slli	a5,a5,0x14
 1002608:	02c12083          	lw	ra,44(sp)
 100260c:	0087e7b3          	or	a5,a5,s0
 1002610:	02812403          	lw	s0,40(sp)
 1002614:	01f81813          	slli	a6,a6,0x1f
 1002618:	02412483          	lw	s1,36(sp)
 100261c:	02012903          	lw	s2,32(sp)
 1002620:	01c12983          	lw	s3,28(sp)
 1002624:	01812a03          	lw	s4,24(sp)
 1002628:	01412a83          	lw	s5,20(sp)
 100262c:	01012b03          	lw	s6,16(sp)
 1002630:	00c12b83          	lw	s7,12(sp)
 1002634:	00070513          	mv	a0,a4
 1002638:	0107e5b3          	or	a1,a5,a6
 100263c:	03010113          	addi	sp,sp,48
 1002640:	00008067          	ret
 1002644:	00098893          	mv	a7,s3
 1002648:	f59ff06f          	j	10025a0 <__muldf3+0x4fc>
 100264c:	08078063          	beqz	a5,10026cc <__muldf3+0x628>
 1002650:	fc900713          	li	a4,-55
 1002654:	b4e7c8e3          	blt	a5,a4,10021a4 <__muldf3+0x100>
 1002658:	fe200713          	li	a4,-30
 100265c:	06e7cc63          	blt	a5,a4,10026d4 <__muldf3+0x630>
 1002660:	00100713          	li	a4,1
 1002664:	40f70733          	sub	a4,a4,a5
 1002668:	41e88893          	addi	a7,a7,1054
 100266c:	011597b3          	sll	a5,a1,a7
 1002670:	00f037b3          	snez	a5,a5
 1002674:	011418b3          	sll	a7,s0,a7
 1002678:	00e5d6b3          	srl	a3,a1,a4
 100267c:	0117e7b3          	or	a5,a5,a7
 1002680:	00d7e7b3          	or	a5,a5,a3
 1002684:	00e45433          	srl	s0,s0,a4
 1002688:	0077f713          	andi	a4,a5,7
 100268c:	02070063          	beqz	a4,10026ac <__muldf3+0x608>
 1002690:	00f7f713          	andi	a4,a5,15
 1002694:	00400693          	li	a3,4
 1002698:	00d70a63          	beq	a4,a3,10026ac <__muldf3+0x608>
 100269c:	00d78733          	add	a4,a5,a3
 10026a0:	00f736b3          	sltu	a3,a4,a5
 10026a4:	00d40433          	add	s0,s0,a3
 10026a8:	00070793          	mv	a5,a4
 10026ac:	00841713          	slli	a4,s0,0x8
 10026b0:	08074063          	bltz	a4,1002730 <__muldf3+0x68c>
 10026b4:	01d41713          	slli	a4,s0,0x1d
 10026b8:	0037d793          	srli	a5,a5,0x3
 10026bc:	00f76733          	or	a4,a4,a5
 10026c0:	00345413          	srli	s0,s0,0x3
 10026c4:	00000793          	li	a5,0
 10026c8:	f35ff06f          	j	10025fc <__muldf3+0x558>
 10026cc:	00100713          	li	a4,1
 10026d0:	f99ff06f          	j	1002668 <__muldf3+0x5c4>
 10026d4:	fe100613          	li	a2,-31
 10026d8:	40f60733          	sub	a4,a2,a5
 10026dc:	00e45733          	srl	a4,s0,a4
 10026e0:	00000693          	li	a3,0
 10026e4:	00c78663          	beq	a5,a2,10026f0 <__muldf3+0x64c>
 10026e8:	43e88893          	addi	a7,a7,1086
 10026ec:	011416b3          	sll	a3,s0,a7
 10026f0:	00d5e5b3          	or	a1,a1,a3
 10026f4:	00b035b3          	snez	a1,a1
 10026f8:	00b767b3          	or	a5,a4,a1
 10026fc:	00000413          	li	s0,0
 1002700:	f89ff06f          	j	1002688 <__muldf3+0x5e4>
 1002704:	00080437          	lui	s0,0x80
 1002708:	7ff00793          	li	a5,2047
 100270c:	00000813          	li	a6,0
 1002710:	eedff06f          	j	10025fc <__muldf3+0x558>
 1002714:	00080437          	lui	s0,0x80
 1002718:	00000713          	li	a4,0
 100271c:	fedff06f          	j	1002708 <__muldf3+0x664>
 1002720:	00000413          	li	s0,0
 1002724:	00000713          	li	a4,0
 1002728:	7ff00793          	li	a5,2047
 100272c:	ed1ff06f          	j	10025fc <__muldf3+0x558>
 1002730:	00000413          	li	s0,0
 1002734:	00000713          	li	a4,0
 1002738:	00100793          	li	a5,1
 100273c:	ec1ff06f          	j	10025fc <__muldf3+0x558>

01002740 <__subdf3>:
 1002740:	00100837          	lui	a6,0x100
 1002744:	fff80813          	addi	a6,a6,-1 # fffff <__heap_size+0xfefff>
 1002748:	fe010113          	addi	sp,sp,-32
 100274c:	00b877b3          	and	a5,a6,a1
 1002750:	0145d713          	srli	a4,a1,0x14
 1002754:	00d87833          	and	a6,a6,a3
 1002758:	0146d893          	srli	a7,a3,0x14
 100275c:	00912a23          	sw	s1,20(sp)
 1002760:	00379793          	slli	a5,a5,0x3
 1002764:	7ff77493          	andi	s1,a4,2047
 1002768:	01d55713          	srli	a4,a0,0x1d
 100276c:	01212823          	sw	s2,16(sp)
 1002770:	00f767b3          	or	a5,a4,a5
 1002774:	01f5d913          	srli	s2,a1,0x1f
 1002778:	01d65713          	srli	a4,a2,0x1d
 100277c:	00381813          	slli	a6,a6,0x3
 1002780:	00112e23          	sw	ra,28(sp)
 1002784:	00812c23          	sw	s0,24(sp)
 1002788:	01312623          	sw	s3,12(sp)
 100278c:	7ff8f893          	andi	a7,a7,2047
 1002790:	7ff00593          	li	a1,2047
 1002794:	00351513          	slli	a0,a0,0x3
 1002798:	01f6d693          	srli	a3,a3,0x1f
 100279c:	01076733          	or	a4,a4,a6
 10027a0:	00361613          	slli	a2,a2,0x3
 10027a4:	00b89663          	bne	a7,a1,10027b0 <__subdf3+0x70>
 10027a8:	00c765b3          	or	a1,a4,a2
 10027ac:	00059463          	bnez	a1,10027b4 <__subdf3+0x74>
 10027b0:	0016c693          	xori	a3,a3,1
 10027b4:	41148833          	sub	a6,s1,a7
 10027b8:	7ff00593          	li	a1,2047
 10027bc:	31269463          	bne	a3,s2,1002ac4 <__subdf3+0x384>
 10027c0:	11005263          	blez	a6,10028c4 <__subdf3+0x184>
 10027c4:	02089c63          	bnez	a7,10027fc <__subdf3+0xbc>
 10027c8:	00c766b3          	or	a3,a4,a2
 10027cc:	02068463          	beqz	a3,10027f4 <__subdf3+0xb4>
 10027d0:	fff48813          	addi	a6,s1,-1 # 7fffff <__heap_size+0x7fefff>
 10027d4:	00081e63          	bnez	a6,10027f0 <__subdf3+0xb0>
 10027d8:	00c50633          	add	a2,a0,a2
 10027dc:	00e787b3          	add	a5,a5,a4
 10027e0:	00a63533          	sltu	a0,a2,a0
 10027e4:	00a787b3          	add	a5,a5,a0
 10027e8:	00100493          	li	s1,1
 10027ec:	0600006f          	j	100284c <__subdf3+0x10c>
 10027f0:	00b49c63          	bne	s1,a1,1002808 <__subdf3+0xc8>
 10027f4:	00050613          	mv	a2,a0
 10027f8:	1d80006f          	j	10029d0 <__subdf3+0x290>
 10027fc:	feb48ce3          	beq	s1,a1,10027f4 <__subdf3+0xb4>
 1002800:	008006b7          	lui	a3,0x800
 1002804:	00d76733          	or	a4,a4,a3
 1002808:	03800693          	li	a3,56
 100280c:	0b06c663          	blt	a3,a6,10028b8 <__subdf3+0x178>
 1002810:	01f00693          	li	a3,31
 1002814:	02000893          	li	a7,32
 1002818:	0706c863          	blt	a3,a6,1002888 <__subdf3+0x148>
 100281c:	410888b3          	sub	a7,a7,a6
 1002820:	011716b3          	sll	a3,a4,a7
 1002824:	010655b3          	srl	a1,a2,a6
 1002828:	011618b3          	sll	a7,a2,a7
 100282c:	00b6e6b3          	or	a3,a3,a1
 1002830:	011038b3          	snez	a7,a7
 1002834:	0116e6b3          	or	a3,a3,a7
 1002838:	01075833          	srl	a6,a4,a6
 100283c:	00a68633          	add	a2,a3,a0
 1002840:	00f80833          	add	a6,a6,a5
 1002844:	00d636b3          	sltu	a3,a2,a3
 1002848:	00d807b3          	add	a5,a6,a3
 100284c:	00879713          	slli	a4,a5,0x8
 1002850:	22075663          	bgez	a4,1002a7c <__subdf3+0x33c>
 1002854:	00148493          	addi	s1,s1,1
 1002858:	7ff00713          	li	a4,2047
 100285c:	60e48863          	beq	s1,a4,1002e6c <__subdf3+0x72c>
 1002860:	ff800737          	lui	a4,0xff800
 1002864:	fff70713          	addi	a4,a4,-1 # ff7fffff <__stack_end+0xfe7dffff>
 1002868:	00e7f7b3          	and	a5,a5,a4
 100286c:	00165713          	srli	a4,a2,0x1
 1002870:	00167613          	andi	a2,a2,1
 1002874:	00c76733          	or	a4,a4,a2
 1002878:	01f79613          	slli	a2,a5,0x1f
 100287c:	00e66633          	or	a2,a2,a4
 1002880:	0017d793          	srli	a5,a5,0x1
 1002884:	1f80006f          	j	1002a7c <__subdf3+0x33c>
 1002888:	fe080693          	addi	a3,a6,-32
 100288c:	00d756b3          	srl	a3,a4,a3
 1002890:	00000593          	li	a1,0
 1002894:	01180863          	beq	a6,a7,10028a4 <__subdf3+0x164>
 1002898:	04000593          	li	a1,64
 100289c:	410585b3          	sub	a1,a1,a6
 10028a0:	00b715b3          	sll	a1,a4,a1
 10028a4:	00c5e5b3          	or	a1,a1,a2
 10028a8:	00b035b3          	snez	a1,a1
 10028ac:	00b6e6b3          	or	a3,a3,a1
 10028b0:	00000813          	li	a6,0
 10028b4:	f89ff06f          	j	100283c <__subdf3+0xfc>
 10028b8:	00c766b3          	or	a3,a4,a2
 10028bc:	00d036b3          	snez	a3,a3
 10028c0:	ff1ff06f          	j	10028b0 <__subdf3+0x170>
 10028c4:	0c080263          	beqz	a6,1002988 <__subdf3+0x248>
 10028c8:	409886b3          	sub	a3,a7,s1
 10028cc:	02049263          	bnez	s1,10028f0 <__subdf3+0x1b0>
 10028d0:	00a7e833          	or	a6,a5,a0
 10028d4:	00080863          	beqz	a6,10028e4 <__subdf3+0x1a4>
 10028d8:	fff68813          	addi	a6,a3,-1 # 7fffff <__heap_size+0x7fefff>
 10028dc:	ee080ee3          	beqz	a6,10027d8 <__subdf3+0x98>
 10028e0:	02b69063          	bne	a3,a1,1002900 <__subdf3+0x1c0>
 10028e4:	00070793          	mv	a5,a4
 10028e8:	00068493          	mv	s1,a3
 10028ec:	0e40006f          	j	10029d0 <__subdf3+0x290>
 10028f0:	58b88663          	beq	a7,a1,1002e7c <__subdf3+0x73c>
 10028f4:	008005b7          	lui	a1,0x800
 10028f8:	00b7e7b3          	or	a5,a5,a1
 10028fc:	00068813          	mv	a6,a3
 1002900:	03800693          	li	a3,56
 1002904:	0706cc63          	blt	a3,a6,100297c <__subdf3+0x23c>
 1002908:	01f00693          	li	a3,31
 100290c:	02000313          	li	t1,32
 1002910:	0306ce63          	blt	a3,a6,100294c <__subdf3+0x20c>
 1002914:	41030333          	sub	t1,t1,a6
 1002918:	006796b3          	sll	a3,a5,t1
 100291c:	010555b3          	srl	a1,a0,a6
 1002920:	00651333          	sll	t1,a0,t1
 1002924:	00b6e6b3          	or	a3,a3,a1
 1002928:	00603333          	snez	t1,t1
 100292c:	0066e6b3          	or	a3,a3,t1
 1002930:	0107d833          	srl	a6,a5,a6
 1002934:	00c68633          	add	a2,a3,a2
 1002938:	00e80833          	add	a6,a6,a4
 100293c:	00d636b3          	sltu	a3,a2,a3
 1002940:	00d807b3          	add	a5,a6,a3
 1002944:	00088493          	mv	s1,a7
 1002948:	f05ff06f          	j	100284c <__subdf3+0x10c>
 100294c:	fe080693          	addi	a3,a6,-32
 1002950:	00d7d6b3          	srl	a3,a5,a3
 1002954:	00000593          	li	a1,0
 1002958:	00680863          	beq	a6,t1,1002968 <__subdf3+0x228>
 100295c:	04000593          	li	a1,64
 1002960:	410585b3          	sub	a1,a1,a6
 1002964:	00b795b3          	sll	a1,a5,a1
 1002968:	00a5e5b3          	or	a1,a1,a0
 100296c:	00b035b3          	snez	a1,a1
 1002970:	00b6e6b3          	or	a3,a3,a1
 1002974:	00000813          	li	a6,0
 1002978:	fbdff06f          	j	1002934 <__subdf3+0x1f4>
 100297c:	00a7e6b3          	or	a3,a5,a0
 1002980:	00d036b3          	snez	a3,a3
 1002984:	ff1ff06f          	j	1002974 <__subdf3+0x234>
 1002988:	00148693          	addi	a3,s1,1
 100298c:	7fe6f813          	andi	a6,a3,2046
 1002990:	0c081263          	bnez	a6,1002a54 <__subdf3+0x314>
 1002994:	00a7e6b3          	or	a3,a5,a0
 1002998:	0a049463          	bnez	s1,1002a40 <__subdf3+0x300>
 100299c:	4a068863          	beqz	a3,1002e4c <__subdf3+0x70c>
 10029a0:	00c766b3          	or	a3,a4,a2
 10029a4:	4a068863          	beqz	a3,1002e54 <__subdf3+0x714>
 10029a8:	00c50633          	add	a2,a0,a2
 10029ac:	00e787b3          	add	a5,a5,a4
 10029b0:	00a63533          	sltu	a0,a2,a0
 10029b4:	00a787b3          	add	a5,a5,a0
 10029b8:	00879713          	slli	a4,a5,0x8
 10029bc:	32075a63          	bgez	a4,1002cf0 <__subdf3+0x5b0>
 10029c0:	ff800737          	lui	a4,0xff800
 10029c4:	fff70713          	addi	a4,a4,-1 # ff7fffff <__stack_end+0xfe7dffff>
 10029c8:	00e7f7b3          	and	a5,a5,a4
 10029cc:	00100493          	li	s1,1
 10029d0:	01d79693          	slli	a3,a5,0x1d
 10029d4:	00365613          	srli	a2,a2,0x3
 10029d8:	7ff00713          	li	a4,2047
 10029dc:	00c6e6b3          	or	a3,a3,a2
 10029e0:	0037d793          	srli	a5,a5,0x3
 10029e4:	00e49e63          	bne	s1,a4,1002a00 <__subdf3+0x2c0>
 10029e8:	00f6e6b3          	or	a3,a3,a5
 10029ec:	00000793          	li	a5,0
 10029f0:	00068863          	beqz	a3,1002a00 <__subdf3+0x2c0>
 10029f4:	000807b7          	lui	a5,0x80
 10029f8:	00000693          	li	a3,0
 10029fc:	00000913          	li	s2,0
 1002a00:	7ff4f713          	andi	a4,s1,2047
 1002a04:	00c79793          	slli	a5,a5,0xc
 1002a08:	01c12083          	lw	ra,28(sp)
 1002a0c:	01812403          	lw	s0,24(sp)
 1002a10:	00c7d793          	srli	a5,a5,0xc
 1002a14:	01471713          	slli	a4,a4,0x14
 1002a18:	01f91593          	slli	a1,s2,0x1f
 1002a1c:	00f76733          	or	a4,a4,a5
 1002a20:	00b767b3          	or	a5,a4,a1
 1002a24:	01412483          	lw	s1,20(sp)
 1002a28:	01012903          	lw	s2,16(sp)
 1002a2c:	00c12983          	lw	s3,12(sp)
 1002a30:	00068513          	mv	a0,a3
 1002a34:	00078593          	mv	a1,a5
 1002a38:	02010113          	addi	sp,sp,32
 1002a3c:	00008067          	ret
 1002a40:	40068e63          	beqz	a3,1002e5c <__subdf3+0x71c>
 1002a44:	00c76733          	or	a4,a4,a2
 1002a48:	2c071c63          	bnez	a4,1002d20 <__subdf3+0x5e0>
 1002a4c:	00050613          	mv	a2,a0
 1002a50:	4100006f          	j	1002e60 <__subdf3+0x720>
 1002a54:	40b68a63          	beq	a3,a1,1002e68 <__subdf3+0x728>
 1002a58:	00c50633          	add	a2,a0,a2
 1002a5c:	00e787b3          	add	a5,a5,a4
 1002a60:	00a63533          	sltu	a0,a2,a0
 1002a64:	00a787b3          	add	a5,a5,a0
 1002a68:	01f79713          	slli	a4,a5,0x1f
 1002a6c:	00165613          	srli	a2,a2,0x1
 1002a70:	00c76633          	or	a2,a4,a2
 1002a74:	0017d793          	srli	a5,a5,0x1
 1002a78:	00068493          	mv	s1,a3
 1002a7c:	00767713          	andi	a4,a2,7
 1002a80:	02070063          	beqz	a4,1002aa0 <__subdf3+0x360>
 1002a84:	00f67713          	andi	a4,a2,15
 1002a88:	00400693          	li	a3,4
 1002a8c:	00d70a63          	beq	a4,a3,1002aa0 <__subdf3+0x360>
 1002a90:	00d60733          	add	a4,a2,a3
 1002a94:	00c736b3          	sltu	a3,a4,a2
 1002a98:	00d787b3          	add	a5,a5,a3
 1002a9c:	00070613          	mv	a2,a4
 1002aa0:	00879713          	slli	a4,a5,0x8
 1002aa4:	f20756e3          	bgez	a4,10029d0 <__subdf3+0x290>
 1002aa8:	00148493          	addi	s1,s1,1
 1002aac:	7ff00713          	li	a4,2047
 1002ab0:	3ae48e63          	beq	s1,a4,1002e6c <__subdf3+0x72c>
 1002ab4:	ff800737          	lui	a4,0xff800
 1002ab8:	fff70713          	addi	a4,a4,-1 # ff7fffff <__stack_end+0xfe7dffff>
 1002abc:	00e7f7b3          	and	a5,a5,a4
 1002ac0:	f11ff06f          	j	10029d0 <__subdf3+0x290>
 1002ac4:	0f005063          	blez	a6,1002ba4 <__subdf3+0x464>
 1002ac8:	08089863          	bnez	a7,1002b58 <__subdf3+0x418>
 1002acc:	00c766b3          	or	a3,a4,a2
 1002ad0:	d20682e3          	beqz	a3,10027f4 <__subdf3+0xb4>
 1002ad4:	fff48813          	addi	a6,s1,-1
 1002ad8:	00081e63          	bnez	a6,1002af4 <__subdf3+0x3b4>
 1002adc:	40c50633          	sub	a2,a0,a2
 1002ae0:	40e787b3          	sub	a5,a5,a4
 1002ae4:	00c53533          	sltu	a0,a0,a2
 1002ae8:	40a787b3          	sub	a5,a5,a0
 1002aec:	00100493          	li	s1,1
 1002af0:	04c0006f          	j	1002b3c <__subdf3+0x3fc>
 1002af4:	d0b480e3          	beq	s1,a1,10027f4 <__subdf3+0xb4>
 1002af8:	03800693          	li	a3,56
 1002afc:	0906ce63          	blt	a3,a6,1002b98 <__subdf3+0x458>
 1002b00:	01f00693          	li	a3,31
 1002b04:	02000893          	li	a7,32
 1002b08:	0706c063          	blt	a3,a6,1002b68 <__subdf3+0x428>
 1002b0c:	410888b3          	sub	a7,a7,a6
 1002b10:	011716b3          	sll	a3,a4,a7
 1002b14:	010655b3          	srl	a1,a2,a6
 1002b18:	011618b3          	sll	a7,a2,a7
 1002b1c:	00b6e6b3          	or	a3,a3,a1
 1002b20:	011038b3          	snez	a7,a7
 1002b24:	0116e6b3          	or	a3,a3,a7
 1002b28:	01075833          	srl	a6,a4,a6
 1002b2c:	40d50633          	sub	a2,a0,a3
 1002b30:	41078833          	sub	a6,a5,a6
 1002b34:	00c53533          	sltu	a0,a0,a2
 1002b38:	40a807b3          	sub	a5,a6,a0
 1002b3c:	00879713          	slli	a4,a5,0x8
 1002b40:	f2075ee3          	bgez	a4,1002a7c <__subdf3+0x33c>
 1002b44:	00800437          	lui	s0,0x800
 1002b48:	fff40413          	addi	s0,s0,-1 # 7fffff <__heap_size+0x7fefff>
 1002b4c:	0087f433          	and	s0,a5,s0
 1002b50:	00060993          	mv	s3,a2
 1002b54:	2140006f          	j	1002d68 <__subdf3+0x628>
 1002b58:	c8b48ee3          	beq	s1,a1,10027f4 <__subdf3+0xb4>
 1002b5c:	008006b7          	lui	a3,0x800
 1002b60:	00d76733          	or	a4,a4,a3
 1002b64:	f95ff06f          	j	1002af8 <__subdf3+0x3b8>
 1002b68:	fe080693          	addi	a3,a6,-32
 1002b6c:	00d756b3          	srl	a3,a4,a3
 1002b70:	00000593          	li	a1,0
 1002b74:	01180863          	beq	a6,a7,1002b84 <__subdf3+0x444>
 1002b78:	04000593          	li	a1,64
 1002b7c:	410585b3          	sub	a1,a1,a6
 1002b80:	00b715b3          	sll	a1,a4,a1
 1002b84:	00c5e5b3          	or	a1,a1,a2
 1002b88:	00b035b3          	snez	a1,a1
 1002b8c:	00b6e6b3          	or	a3,a3,a1
 1002b90:	00000813          	li	a6,0
 1002b94:	f99ff06f          	j	1002b2c <__subdf3+0x3ec>
 1002b98:	00c766b3          	or	a3,a4,a2
 1002b9c:	00d036b3          	snez	a3,a3
 1002ba0:	ff1ff06f          	j	1002b90 <__subdf3+0x450>
 1002ba4:	0e080663          	beqz	a6,1002c90 <__subdf3+0x550>
 1002ba8:	40988333          	sub	t1,a7,s1
 1002bac:	04049263          	bnez	s1,1002bf0 <__subdf3+0x4b0>
 1002bb0:	00a7e833          	or	a6,a5,a0
 1002bb4:	02080663          	beqz	a6,1002be0 <__subdf3+0x4a0>
 1002bb8:	fff30813          	addi	a6,t1,-1
 1002bbc:	02081063          	bnez	a6,1002bdc <__subdf3+0x49c>
 1002bc0:	40a60533          	sub	a0,a2,a0
 1002bc4:	00a635b3          	sltu	a1,a2,a0
 1002bc8:	40f707b3          	sub	a5,a4,a5
 1002bcc:	00050613          	mv	a2,a0
 1002bd0:	40b787b3          	sub	a5,a5,a1
 1002bd4:	00068913          	mv	s2,a3
 1002bd8:	f15ff06f          	j	1002aec <__subdf3+0x3ac>
 1002bdc:	02b31263          	bne	t1,a1,1002c00 <__subdf3+0x4c0>
 1002be0:	00068913          	mv	s2,a3
 1002be4:	00070793          	mv	a5,a4
 1002be8:	00030493          	mv	s1,t1
 1002bec:	de5ff06f          	j	10029d0 <__subdf3+0x290>
 1002bf0:	28b88463          	beq	a7,a1,1002e78 <__subdf3+0x738>
 1002bf4:	008005b7          	lui	a1,0x800
 1002bf8:	00b7e7b3          	or	a5,a5,a1
 1002bfc:	00030813          	mv	a6,t1
 1002c00:	03800593          	li	a1,56
 1002c04:	0905c063          	blt	a1,a6,1002c84 <__subdf3+0x544>
 1002c08:	01f00593          	li	a1,31
 1002c0c:	02000e13          	li	t3,32
 1002c10:	0505c263          	blt	a1,a6,1002c54 <__subdf3+0x514>
 1002c14:	410e0e33          	sub	t3,t3,a6
 1002c18:	01c795b3          	sll	a1,a5,t3
 1002c1c:	01055333          	srl	t1,a0,a6
 1002c20:	01c51e33          	sll	t3,a0,t3
 1002c24:	0065e5b3          	or	a1,a1,t1
 1002c28:	01c03e33          	snez	t3,t3
 1002c2c:	01c5e5b3          	or	a1,a1,t3
 1002c30:	0107d833          	srl	a6,a5,a6
 1002c34:	40b605b3          	sub	a1,a2,a1
 1002c38:	00b637b3          	sltu	a5,a2,a1
 1002c3c:	41070833          	sub	a6,a4,a6
 1002c40:	00058613          	mv	a2,a1
 1002c44:	40f807b3          	sub	a5,a6,a5
 1002c48:	00088493          	mv	s1,a7
 1002c4c:	00068913          	mv	s2,a3
 1002c50:	eedff06f          	j	1002b3c <__subdf3+0x3fc>
 1002c54:	fe080593          	addi	a1,a6,-32
 1002c58:	00b7d5b3          	srl	a1,a5,a1
 1002c5c:	00000313          	li	t1,0
 1002c60:	01c80863          	beq	a6,t3,1002c70 <__subdf3+0x530>
 1002c64:	04000313          	li	t1,64
 1002c68:	41030333          	sub	t1,t1,a6
 1002c6c:	00679333          	sll	t1,a5,t1
 1002c70:	00a36333          	or	t1,t1,a0
 1002c74:	00603333          	snez	t1,t1
 1002c78:	0065e5b3          	or	a1,a1,t1
 1002c7c:	00000813          	li	a6,0
 1002c80:	fb5ff06f          	j	1002c34 <__subdf3+0x4f4>
 1002c84:	00a7e5b3          	or	a1,a5,a0
 1002c88:	00b035b3          	snez	a1,a1
 1002c8c:	ff1ff06f          	j	1002c7c <__subdf3+0x53c>
 1002c90:	00148813          	addi	a6,s1,1
 1002c94:	7fe87813          	andi	a6,a6,2046
 1002c98:	0a081063          	bnez	a6,1002d38 <__subdf3+0x5f8>
 1002c9c:	00c76833          	or	a6,a4,a2
 1002ca0:	00a7e8b3          	or	a7,a5,a0
 1002ca4:	06049863          	bnez	s1,1002d14 <__subdf3+0x5d4>
 1002ca8:	00089a63          	bnez	a7,1002cbc <__subdf3+0x57c>
 1002cac:	00070793          	mv	a5,a4
 1002cb0:	02081e63          	bnez	a6,1002cec <__subdf3+0x5ac>
 1002cb4:	00000913          	li	s2,0
 1002cb8:	1b40006f          	j	1002e6c <__subdf3+0x72c>
 1002cbc:	18080c63          	beqz	a6,1002e54 <__subdf3+0x714>
 1002cc0:	40c50833          	sub	a6,a0,a2
 1002cc4:	010538b3          	sltu	a7,a0,a6
 1002cc8:	40e785b3          	sub	a1,a5,a4
 1002ccc:	411585b3          	sub	a1,a1,a7
 1002cd0:	00859893          	slli	a7,a1,0x8
 1002cd4:	0208d663          	bgez	a7,1002d00 <__subdf3+0x5c0>
 1002cd8:	40a60533          	sub	a0,a2,a0
 1002cdc:	00a635b3          	sltu	a1,a2,a0
 1002ce0:	40f707b3          	sub	a5,a4,a5
 1002ce4:	00050613          	mv	a2,a0
 1002ce8:	40b787b3          	sub	a5,a5,a1
 1002cec:	00068913          	mv	s2,a3
 1002cf0:	00f66733          	or	a4,a2,a5
 1002cf4:	1a070063          	beqz	a4,1002e94 <__subdf3+0x754>
 1002cf8:	00000493          	li	s1,0
 1002cfc:	d81ff06f          	j	1002a7c <__subdf3+0x33c>
 1002d00:	00b86633          	or	a2,a6,a1
 1002d04:	18060263          	beqz	a2,1002e88 <__subdf3+0x748>
 1002d08:	00058793          	mv	a5,a1
 1002d0c:	00080613          	mv	a2,a6
 1002d10:	fe1ff06f          	j	1002cf0 <__subdf3+0x5b0>
 1002d14:	00089e63          	bnez	a7,1002d30 <__subdf3+0x5f0>
 1002d18:	00068913          	mv	s2,a3
 1002d1c:	14081063          	bnez	a6,1002e5c <__subdf3+0x71c>
 1002d20:	00000913          	li	s2,0
 1002d24:	004007b7          	lui	a5,0x400
 1002d28:	00000613          	li	a2,0
 1002d2c:	1340006f          	j	1002e60 <__subdf3+0x720>
 1002d30:	d0080ee3          	beqz	a6,1002a4c <__subdf3+0x30c>
 1002d34:	fedff06f          	j	1002d20 <__subdf3+0x5e0>
 1002d38:	40c505b3          	sub	a1,a0,a2
 1002d3c:	00b53833          	sltu	a6,a0,a1
 1002d40:	40e78433          	sub	s0,a5,a4
 1002d44:	41040433          	sub	s0,s0,a6
 1002d48:	00841813          	slli	a6,s0,0x8
 1002d4c:	00058993          	mv	s3,a1
 1002d50:	06085e63          	bgez	a6,1002dcc <__subdf3+0x68c>
 1002d54:	40a609b3          	sub	s3,a2,a0
 1002d58:	40f70433          	sub	s0,a4,a5
 1002d5c:	01363633          	sltu	a2,a2,s3
 1002d60:	40c40433          	sub	s0,s0,a2
 1002d64:	00068913          	mv	s2,a3
 1002d68:	06040e63          	beqz	s0,1002de4 <__subdf3+0x6a4>
 1002d6c:	00040513          	mv	a0,s0
 1002d70:	15d000ef          	jal	10036cc <__clzsi2>
 1002d74:	ff850713          	addi	a4,a0,-8
 1002d78:	02000793          	li	a5,32
 1002d7c:	40e787b3          	sub	a5,a5,a4
 1002d80:	00e41433          	sll	s0,s0,a4
 1002d84:	00f9d7b3          	srl	a5,s3,a5
 1002d88:	0087e7b3          	or	a5,a5,s0
 1002d8c:	00e99633          	sll	a2,s3,a4
 1002d90:	0a974463          	blt	a4,s1,1002e38 <__subdf3+0x6f8>
 1002d94:	40970733          	sub	a4,a4,s1
 1002d98:	00170513          	addi	a0,a4,1
 1002d9c:	01f00693          	li	a3,31
 1002da0:	02000593          	li	a1,32
 1002da4:	06a6c263          	blt	a3,a0,1002e08 <__subdf3+0x6c8>
 1002da8:	40a585b3          	sub	a1,a1,a0
 1002dac:	00b79733          	sll	a4,a5,a1
 1002db0:	00a656b3          	srl	a3,a2,a0
 1002db4:	00b615b3          	sll	a1,a2,a1
 1002db8:	00d76733          	or	a4,a4,a3
 1002dbc:	00b035b3          	snez	a1,a1
 1002dc0:	00b76633          	or	a2,a4,a1
 1002dc4:	00a7d7b3          	srl	a5,a5,a0
 1002dc8:	f29ff06f          	j	1002cf0 <__subdf3+0x5b0>
 1002dcc:	0085e633          	or	a2,a1,s0
 1002dd0:	f8061ce3          	bnez	a2,1002d68 <__subdf3+0x628>
 1002dd4:	00000913          	li	s2,0
 1002dd8:	00000793          	li	a5,0
 1002ddc:	00000493          	li	s1,0
 1002de0:	bf1ff06f          	j	10029d0 <__subdf3+0x290>
 1002de4:	00098513          	mv	a0,s3
 1002de8:	0e5000ef          	jal	10036cc <__clzsi2>
 1002dec:	01850713          	addi	a4,a0,24
 1002df0:	01f00793          	li	a5,31
 1002df4:	f8e7d2e3          	bge	a5,a4,1002d78 <__subdf3+0x638>
 1002df8:	ff850793          	addi	a5,a0,-8
 1002dfc:	00f997b3          	sll	a5,s3,a5
 1002e00:	00000613          	li	a2,0
 1002e04:	f8dff06f          	j	1002d90 <__subdf3+0x650>
 1002e08:	fe170713          	addi	a4,a4,-31
 1002e0c:	00e7d733          	srl	a4,a5,a4
 1002e10:	00000693          	li	a3,0
 1002e14:	00b50863          	beq	a0,a1,1002e24 <__subdf3+0x6e4>
 1002e18:	04000693          	li	a3,64
 1002e1c:	40a686b3          	sub	a3,a3,a0
 1002e20:	00d796b3          	sll	a3,a5,a3
 1002e24:	00d666b3          	or	a3,a2,a3
 1002e28:	00d036b3          	snez	a3,a3
 1002e2c:	00d76633          	or	a2,a4,a3
 1002e30:	00000793          	li	a5,0
 1002e34:	ebdff06f          	j	1002cf0 <__subdf3+0x5b0>
 1002e38:	40e484b3          	sub	s1,s1,a4
 1002e3c:	ff800737          	lui	a4,0xff800
 1002e40:	fff70713          	addi	a4,a4,-1 # ff7fffff <__stack_end+0xfe7dffff>
 1002e44:	00e7f7b3          	and	a5,a5,a4
 1002e48:	c35ff06f          	j	1002a7c <__subdf3+0x33c>
 1002e4c:	00070793          	mv	a5,a4
 1002e50:	ea1ff06f          	j	1002cf0 <__subdf3+0x5b0>
 1002e54:	00050613          	mv	a2,a0
 1002e58:	e99ff06f          	j	1002cf0 <__subdf3+0x5b0>
 1002e5c:	00070793          	mv	a5,a4
 1002e60:	00058493          	mv	s1,a1
 1002e64:	b6dff06f          	j	10029d0 <__subdf3+0x290>
 1002e68:	00068493          	mv	s1,a3
 1002e6c:	00000793          	li	a5,0
 1002e70:	00000613          	li	a2,0
 1002e74:	b5dff06f          	j	10029d0 <__subdf3+0x290>
 1002e78:	00068913          	mv	s2,a3
 1002e7c:	00070793          	mv	a5,a4
 1002e80:	00088493          	mv	s1,a7
 1002e84:	b4dff06f          	j	10029d0 <__subdf3+0x290>
 1002e88:	00000913          	li	s2,0
 1002e8c:	00000793          	li	a5,0
 1002e90:	b41ff06f          	j	10029d0 <__subdf3+0x290>
 1002e94:	00000793          	li	a5,0
 1002e98:	00000613          	li	a2,0
 1002e9c:	f41ff06f          	j	1002ddc <__subdf3+0x69c>

01002ea0 <__unorddf2>:
 1002ea0:	001007b7          	lui	a5,0x100
 1002ea4:	fff78793          	addi	a5,a5,-1 # fffff <__heap_size+0xfefff>
 1002ea8:	00b7f733          	and	a4,a5,a1
 1002eac:	0145d593          	srli	a1,a1,0x14
 1002eb0:	00d7f7b3          	and	a5,a5,a3
 1002eb4:	7ff5f593          	andi	a1,a1,2047
 1002eb8:	0146d693          	srli	a3,a3,0x14
 1002ebc:	7ff00813          	li	a6,2047
 1002ec0:	7ff6f693          	andi	a3,a3,2047
 1002ec4:	01059863          	bne	a1,a6,1002ed4 <__unorddf2+0x34>
 1002ec8:	00a76733          	or	a4,a4,a0
 1002ecc:	00100513          	li	a0,1
 1002ed0:	00071a63          	bnez	a4,1002ee4 <__unorddf2+0x44>
 1002ed4:	00000513          	li	a0,0
 1002ed8:	01069663          	bne	a3,a6,1002ee4 <__unorddf2+0x44>
 1002edc:	00c7e7b3          	or	a5,a5,a2
 1002ee0:	00f03533          	snez	a0,a5
 1002ee4:	00008067          	ret

01002ee8 <__fixdfsi>:
 1002ee8:	0145d713          	srli	a4,a1,0x14
 1002eec:	001006b7          	lui	a3,0x100
 1002ef0:	fff68793          	addi	a5,a3,-1 # fffff <__heap_size+0xfefff>
 1002ef4:	7ff77713          	andi	a4,a4,2047
 1002ef8:	3fe00613          	li	a2,1022
 1002efc:	00b7f7b3          	and	a5,a5,a1
 1002f00:	01f5d593          	srli	a1,a1,0x1f
 1002f04:	04e65c63          	bge	a2,a4,1002f5c <__fixdfsi+0x74>
 1002f08:	41d00613          	li	a2,1053
 1002f0c:	00e65a63          	bge	a2,a4,1002f20 <__fixdfsi+0x38>
 1002f10:	80000537          	lui	a0,0x80000
 1002f14:	fff50513          	addi	a0,a0,-1 # 7fffffff <__stack_end+0x7efdffff>
 1002f18:	00a58533          	add	a0,a1,a0
 1002f1c:	00008067          	ret
 1002f20:	00d7e7b3          	or	a5,a5,a3
 1002f24:	41300693          	li	a3,1043
 1002f28:	02e6d463          	bge	a3,a4,1002f50 <__fixdfsi+0x68>
 1002f2c:	bed70693          	addi	a3,a4,-1043
 1002f30:	00d797b3          	sll	a5,a5,a3
 1002f34:	43300693          	li	a3,1075
 1002f38:	40e68733          	sub	a4,a3,a4
 1002f3c:	00e55533          	srl	a0,a0,a4
 1002f40:	00a7e533          	or	a0,a5,a0
 1002f44:	00058e63          	beqz	a1,1002f60 <__fixdfsi+0x78>
 1002f48:	40a00533          	neg	a0,a0
 1002f4c:	00008067          	ret
 1002f50:	40e686b3          	sub	a3,a3,a4
 1002f54:	00d7d533          	srl	a0,a5,a3
 1002f58:	fedff06f          	j	1002f44 <__fixdfsi+0x5c>
 1002f5c:	00000513          	li	a0,0
 1002f60:	00008067          	ret

01002f64 <__floatsidf>:
 1002f64:	ff010113          	addi	sp,sp,-16
 1002f68:	00112623          	sw	ra,12(sp)
 1002f6c:	00812423          	sw	s0,8(sp)
 1002f70:	00912223          	sw	s1,4(sp)
 1002f74:	00050793          	mv	a5,a0
 1002f78:	08050063          	beqz	a0,1002ff8 <__floatsidf+0x94>
 1002f7c:	41f55713          	srai	a4,a0,0x1f
 1002f80:	00a74433          	xor	s0,a4,a0
 1002f84:	40e40433          	sub	s0,s0,a4
 1002f88:	01f55493          	srli	s1,a0,0x1f
 1002f8c:	00040513          	mv	a0,s0
 1002f90:	73c000ef          	jal	10036cc <__clzsi2>
 1002f94:	41e00793          	li	a5,1054
 1002f98:	00a00713          	li	a4,10
 1002f9c:	40a787b3          	sub	a5,a5,a0
 1002fa0:	04a74463          	blt	a4,a0,1002fe8 <__floatsidf+0x84>
 1002fa4:	00b00713          	li	a4,11
 1002fa8:	40a70733          	sub	a4,a4,a0
 1002fac:	01550513          	addi	a0,a0,21
 1002fb0:	00e45733          	srl	a4,s0,a4
 1002fb4:	00a41433          	sll	s0,s0,a0
 1002fb8:	00c12083          	lw	ra,12(sp)
 1002fbc:	00040513          	mv	a0,s0
 1002fc0:	00c71713          	slli	a4,a4,0xc
 1002fc4:	00812403          	lw	s0,8(sp)
 1002fc8:	01479793          	slli	a5,a5,0x14
 1002fcc:	00c75713          	srli	a4,a4,0xc
 1002fd0:	01f49493          	slli	s1,s1,0x1f
 1002fd4:	00e7e7b3          	or	a5,a5,a4
 1002fd8:	0097e5b3          	or	a1,a5,s1
 1002fdc:	00412483          	lw	s1,4(sp)
 1002fe0:	01010113          	addi	sp,sp,16
 1002fe4:	00008067          	ret
 1002fe8:	ff550513          	addi	a0,a0,-11
 1002fec:	00a41733          	sll	a4,s0,a0
 1002ff0:	00000413          	li	s0,0
 1002ff4:	fc5ff06f          	j	1002fb8 <__floatsidf+0x54>
 1002ff8:	00000493          	li	s1,0
 1002ffc:	00000713          	li	a4,0
 1003000:	ff1ff06f          	j	1002ff0 <__floatsidf+0x8c>

01003004 <__divsf3>:
 1003004:	fd010113          	addi	sp,sp,-48
 1003008:	02912223          	sw	s1,36(sp)
 100300c:	01755493          	srli	s1,a0,0x17
 1003010:	01412c23          	sw	s4,24(sp)
 1003014:	01512a23          	sw	s5,20(sp)
 1003018:	01712623          	sw	s7,12(sp)
 100301c:	00951a13          	slli	s4,a0,0x9
 1003020:	02112623          	sw	ra,44(sp)
 1003024:	02812423          	sw	s0,40(sp)
 1003028:	03212023          	sw	s2,32(sp)
 100302c:	01312e23          	sw	s3,28(sp)
 1003030:	01612823          	sw	s6,16(sp)
 1003034:	01812423          	sw	s8,8(sp)
 1003038:	0ff4f493          	zext.b	s1,s1
 100303c:	00058b93          	mv	s7,a1
 1003040:	009a5a13          	srli	s4,s4,0x9
 1003044:	01f55a93          	srli	s5,a0,0x1f
 1003048:	08048463          	beqz	s1,10030d0 <__divsf3+0xcc>
 100304c:	0ff00793          	li	a5,255
 1003050:	0af48063          	beq	s1,a5,10030f0 <__divsf3+0xec>
 1003054:	003a1a13          	slli	s4,s4,0x3
 1003058:	040007b7          	lui	a5,0x4000
 100305c:	00fa6a33          	or	s4,s4,a5
 1003060:	f8148493          	addi	s1,s1,-127
 1003064:	00000b13          	li	s6,0
 1003068:	017bd793          	srli	a5,s7,0x17
 100306c:	009b9413          	slli	s0,s7,0x9
 1003070:	0ff7f793          	zext.b	a5,a5
 1003074:	00945413          	srli	s0,s0,0x9
 1003078:	01fbdb93          	srli	s7,s7,0x1f
 100307c:	08078863          	beqz	a5,100310c <__divsf3+0x108>
 1003080:	0ff00713          	li	a4,255
 1003084:	0ae78463          	beq	a5,a4,100312c <__divsf3+0x128>
 1003088:	00341413          	slli	s0,s0,0x3
 100308c:	04000737          	lui	a4,0x4000
 1003090:	00e46433          	or	s0,s0,a4
 1003094:	f8178793          	addi	a5,a5,-127 # 3ffff81 <__stack_end+0x2fdff81>
 1003098:	00000713          	li	a4,0
 100309c:	40f489b3          	sub	s3,s1,a5
 10030a0:	002b1793          	slli	a5,s6,0x2
 10030a4:	00e7e7b3          	or	a5,a5,a4
 10030a8:	fff78793          	addi	a5,a5,-1
 10030ac:	00e00693          	li	a3,14
 10030b0:	017ac933          	xor	s2,s5,s7
 10030b4:	08f6ea63          	bltu	a3,a5,1003148 <__divsf3+0x144>
 10030b8:	010076b7          	lui	a3,0x1007
 10030bc:	00279793          	slli	a5,a5,0x2
 10030c0:	22868693          	addi	a3,a3,552 # 1007228 <hello_string+0x50>
 10030c4:	00d787b3          	add	a5,a5,a3
 10030c8:	0007a783          	lw	a5,0(a5)
 10030cc:	00078067          	jr	a5
 10030d0:	020a0863          	beqz	s4,1003100 <__divsf3+0xfc>
 10030d4:	000a0513          	mv	a0,s4
 10030d8:	5f4000ef          	jal	10036cc <__clzsi2>
 10030dc:	ffb50793          	addi	a5,a0,-5
 10030e0:	f8a00493          	li	s1,-118
 10030e4:	00fa1a33          	sll	s4,s4,a5
 10030e8:	40a484b3          	sub	s1,s1,a0
 10030ec:	f79ff06f          	j	1003064 <__divsf3+0x60>
 10030f0:	00200b13          	li	s6,2
 10030f4:	f60a0ae3          	beqz	s4,1003068 <__divsf3+0x64>
 10030f8:	00300b13          	li	s6,3
 10030fc:	f6dff06f          	j	1003068 <__divsf3+0x64>
 1003100:	00000493          	li	s1,0
 1003104:	00100b13          	li	s6,1
 1003108:	f61ff06f          	j	1003068 <__divsf3+0x64>
 100310c:	02040863          	beqz	s0,100313c <__divsf3+0x138>
 1003110:	00040513          	mv	a0,s0
 1003114:	5b8000ef          	jal	10036cc <__clzsi2>
 1003118:	ffb50793          	addi	a5,a0,-5
 100311c:	00f41433          	sll	s0,s0,a5
 1003120:	f8a00793          	li	a5,-118
 1003124:	40a787b3          	sub	a5,a5,a0
 1003128:	f71ff06f          	j	1003098 <__divsf3+0x94>
 100312c:	00200713          	li	a4,2
 1003130:	f60406e3          	beqz	s0,100309c <__divsf3+0x98>
 1003134:	00300713          	li	a4,3
 1003138:	f65ff06f          	j	100309c <__divsf3+0x98>
 100313c:	00000793          	li	a5,0
 1003140:	00100713          	li	a4,1
 1003144:	f59ff06f          	j	100309c <__divsf3+0x98>
 1003148:	00541b13          	slli	s6,s0,0x5
 100314c:	148a7a63          	bgeu	s4,s0,10032a0 <__divsf3+0x29c>
 1003150:	fff98993          	addi	s3,s3,-1
 1003154:	00000413          	li	s0,0
 1003158:	010b5a93          	srli	s5,s6,0x10
 100315c:	000a8593          	mv	a1,s5
 1003160:	010b1c13          	slli	s8,s6,0x10
 1003164:	000a0513          	mv	a0,s4
 1003168:	4b8000ef          	jal	1003620 <__hidden___udivsi3>
 100316c:	010c5c13          	srli	s8,s8,0x10
 1003170:	00050593          	mv	a1,a0
 1003174:	00050493          	mv	s1,a0
 1003178:	000c0513          	mv	a0,s8
 100317c:	478000ef          	jal	10035f4 <__mulsi3>
 1003180:	00050b93          	mv	s7,a0
 1003184:	000a8593          	mv	a1,s5
 1003188:	000a0513          	mv	a0,s4
 100318c:	4dc000ef          	jal	1003668 <__umodsi3>
 1003190:	01051513          	slli	a0,a0,0x10
 1003194:	01045793          	srli	a5,s0,0x10
 1003198:	00a7e7b3          	or	a5,a5,a0
 100319c:	0177fa63          	bgeu	a5,s7,10031b0 <__divsf3+0x1ac>
 10031a0:	00fb07b3          	add	a5,s6,a5
 10031a4:	0177f463          	bgeu	a5,s7,10031ac <__divsf3+0x1a8>
 10031a8:	1167f263          	bgeu	a5,s6,10032ac <__divsf3+0x2a8>
 10031ac:	fff48493          	addi	s1,s1,-1
 10031b0:	41778433          	sub	s0,a5,s7
 10031b4:	000a8593          	mv	a1,s5
 10031b8:	00040513          	mv	a0,s0
 10031bc:	464000ef          	jal	1003620 <__hidden___udivsi3>
 10031c0:	00050593          	mv	a1,a0
 10031c4:	00050a13          	mv	s4,a0
 10031c8:	000c0513          	mv	a0,s8
 10031cc:	428000ef          	jal	10035f4 <__mulsi3>
 10031d0:	00050b93          	mv	s7,a0
 10031d4:	000a8593          	mv	a1,s5
 10031d8:	00040513          	mv	a0,s0
 10031dc:	48c000ef          	jal	1003668 <__umodsi3>
 10031e0:	01051793          	slli	a5,a0,0x10
 10031e4:	0177fe63          	bgeu	a5,s7,1003200 <__divsf3+0x1fc>
 10031e8:	01678733          	add	a4,a5,s6
 10031ec:	00f736b3          	sltu	a3,a4,a5
 10031f0:	00070793          	mv	a5,a4
 10031f4:	01777463          	bgeu	a4,s7,10031fc <__divsf3+0x1f8>
 10031f8:	0c068063          	beqz	a3,10032b8 <__divsf3+0x2b4>
 10031fc:	fffa0a13          	addi	s4,s4,-1
 1003200:	01049413          	slli	s0,s1,0x10
 1003204:	417787b3          	sub	a5,a5,s7
 1003208:	01446433          	or	s0,s0,s4
 100320c:	00f037b3          	snez	a5,a5
 1003210:	00f46433          	or	s0,s0,a5
 1003214:	07f98713          	addi	a4,s3,127
 1003218:	0ee05263          	blez	a4,10032fc <__divsf3+0x2f8>
 100321c:	00747793          	andi	a5,s0,7
 1003220:	00078a63          	beqz	a5,1003234 <__divsf3+0x230>
 1003224:	00f47793          	andi	a5,s0,15
 1003228:	00400693          	li	a3,4
 100322c:	00d78463          	beq	a5,a3,1003234 <__divsf3+0x230>
 1003230:	00d40433          	add	s0,s0,a3
 1003234:	00441793          	slli	a5,s0,0x4
 1003238:	0007da63          	bgez	a5,100324c <__divsf3+0x248>
 100323c:	f80007b7          	lui	a5,0xf8000
 1003240:	fff78793          	addi	a5,a5,-1 # f7ffffff <__stack_end+0xf6fdffff>
 1003244:	00f47433          	and	s0,s0,a5
 1003248:	08098713          	addi	a4,s3,128
 100324c:	0fe00793          	li	a5,254
 1003250:	10e7ce63          	blt	a5,a4,100336c <__divsf3+0x368>
 1003254:	00345793          	srli	a5,s0,0x3
 1003258:	02c12083          	lw	ra,44(sp)
 100325c:	02812403          	lw	s0,40(sp)
 1003260:	00979793          	slli	a5,a5,0x9
 1003264:	01771713          	slli	a4,a4,0x17
 1003268:	0097d793          	srli	a5,a5,0x9
 100326c:	01f91513          	slli	a0,s2,0x1f
 1003270:	00f76733          	or	a4,a4,a5
 1003274:	02412483          	lw	s1,36(sp)
 1003278:	02012903          	lw	s2,32(sp)
 100327c:	01c12983          	lw	s3,28(sp)
 1003280:	01812a03          	lw	s4,24(sp)
 1003284:	01412a83          	lw	s5,20(sp)
 1003288:	01012b03          	lw	s6,16(sp)
 100328c:	00c12b83          	lw	s7,12(sp)
 1003290:	00812c03          	lw	s8,8(sp)
 1003294:	00a76533          	or	a0,a4,a0
 1003298:	03010113          	addi	sp,sp,48
 100329c:	00008067          	ret
 10032a0:	01fa1413          	slli	s0,s4,0x1f
 10032a4:	001a5a13          	srli	s4,s4,0x1
 10032a8:	eb1ff06f          	j	1003158 <__divsf3+0x154>
 10032ac:	ffe48493          	addi	s1,s1,-2
 10032b0:	016787b3          	add	a5,a5,s6
 10032b4:	efdff06f          	j	10031b0 <__divsf3+0x1ac>
 10032b8:	ffea0a13          	addi	s4,s4,-2
 10032bc:	016707b3          	add	a5,a4,s6
 10032c0:	f41ff06f          	j	1003200 <__divsf3+0x1fc>
 10032c4:	000b8913          	mv	s2,s7
 10032c8:	00200793          	li	a5,2
 10032cc:	0af70063          	beq	a4,a5,100336c <__divsf3+0x368>
 10032d0:	00300793          	li	a5,3
 10032d4:	08f70463          	beq	a4,a5,100335c <__divsf3+0x358>
 10032d8:	00100793          	li	a5,1
 10032dc:	f2f71ce3          	bne	a4,a5,1003214 <__divsf3+0x210>
 10032e0:	00000793          	li	a5,0
 10032e4:	00000713          	li	a4,0
 10032e8:	f71ff06f          	j	1003258 <__divsf3+0x254>
 10032ec:	000a8913          	mv	s2,s5
 10032f0:	000a0413          	mv	s0,s4
 10032f4:	000b0713          	mv	a4,s6
 10032f8:	fd1ff06f          	j	10032c8 <__divsf3+0x2c4>
 10032fc:	04070c63          	beqz	a4,1003354 <__divsf3+0x350>
 1003300:	fe600793          	li	a5,-26
 1003304:	fcf74ee3          	blt	a4,a5,10032e0 <__divsf3+0x2dc>
 1003308:	00100793          	li	a5,1
 100330c:	40e787b3          	sub	a5,a5,a4
 1003310:	09e98493          	addi	s1,s3,158
 1003314:	00f457b3          	srl	a5,s0,a5
 1003318:	00941433          	sll	s0,s0,s1
 100331c:	00803433          	snez	s0,s0
 1003320:	0087e7b3          	or	a5,a5,s0
 1003324:	0077f713          	andi	a4,a5,7
 1003328:	00070a63          	beqz	a4,100333c <__divsf3+0x338>
 100332c:	00f7f713          	andi	a4,a5,15
 1003330:	00400693          	li	a3,4
 1003334:	00d70463          	beq	a4,a3,100333c <__divsf3+0x338>
 1003338:	00d787b3          	add	a5,a5,a3
 100333c:	00579713          	slli	a4,a5,0x5
 1003340:	0037d793          	srli	a5,a5,0x3
 1003344:	fa0750e3          	bgez	a4,10032e4 <__divsf3+0x2e0>
 1003348:	00000793          	li	a5,0
 100334c:	00100713          	li	a4,1
 1003350:	f09ff06f          	j	1003258 <__divsf3+0x254>
 1003354:	00100793          	li	a5,1
 1003358:	fb9ff06f          	j	1003310 <__divsf3+0x30c>
 100335c:	004007b7          	lui	a5,0x400
 1003360:	0ff00713          	li	a4,255
 1003364:	00000913          	li	s2,0
 1003368:	ef1ff06f          	j	1003258 <__divsf3+0x254>
 100336c:	00000793          	li	a5,0
 1003370:	0ff00713          	li	a4,255
 1003374:	ee5ff06f          	j	1003258 <__divsf3+0x254>

01003378 <__gesf2>:
 1003378:	00800737          	lui	a4,0x800
 100337c:	fff70713          	addi	a4,a4,-1 # 7fffff <__heap_size+0x7fefff>
 1003380:	00a77633          	and	a2,a4,a0
 1003384:	01755693          	srli	a3,a0,0x17
 1003388:	0ff6f693          	zext.b	a3,a3
 100338c:	01f55793          	srli	a5,a0,0x1f
 1003390:	00b77733          	and	a4,a4,a1
 1003394:	01f5d893          	srli	a7,a1,0x1f
 1003398:	00060863          	beqz	a2,10033a8 <__gesf2+0x30>
 100339c:	f0168813          	addi	a6,a3,-255
 10033a0:	ffe00513          	li	a0,-2
 10033a4:	06080463          	beqz	a6,100340c <__gesf2+0x94>
 10033a8:	0175d593          	srli	a1,a1,0x17
 10033ac:	0ff5f593          	zext.b	a1,a1
 10033b0:	00070863          	beqz	a4,10033c0 <__gesf2+0x48>
 10033b4:	f0158813          	addi	a6,a1,-255 # 7fff01 <__heap_size+0x7fef01>
 10033b8:	ffe00513          	li	a0,-2
 10033bc:	04080863          	beqz	a6,100340c <__gesf2+0x94>
 10033c0:	00c6e533          	or	a0,a3,a2
 10033c4:	00e5e833          	or	a6,a1,a4
 10033c8:	00051a63          	bnez	a0,10033dc <__gesf2+0x64>
 10033cc:	04080063          	beqz	a6,100340c <__gesf2+0x94>
 10033d0:	00189513          	slli	a0,a7,0x1
 10033d4:	fff50513          	addi	a0,a0,-1
 10033d8:	00008067          	ret
 10033dc:	00081863          	bnez	a6,10033ec <__gesf2+0x74>
 10033e0:	40f007b3          	neg	a5,a5
 10033e4:	0017e513          	ori	a0,a5,1
 10033e8:	00008067          	ret
 10033ec:	ff179ae3          	bne	a5,a7,10033e0 <__gesf2+0x68>
 10033f0:	fed5c8e3          	blt	a1,a3,10033e0 <__gesf2+0x68>
 10033f4:	00b6d663          	bge	a3,a1,1003400 <__gesf2+0x88>
 10033f8:	00179513          	slli	a0,a5,0x1
 10033fc:	fd9ff06f          	j	10033d4 <__gesf2+0x5c>
 1003400:	fec760e3          	bltu	a4,a2,10033e0 <__gesf2+0x68>
 1003404:	00000513          	li	a0,0
 1003408:	fee668e3          	bltu	a2,a4,10033f8 <__gesf2+0x80>
 100340c:	00008067          	ret

01003410 <__floatsisf>:
 1003410:	ff010113          	addi	sp,sp,-16
 1003414:	00112623          	sw	ra,12(sp)
 1003418:	00812423          	sw	s0,8(sp)
 100341c:	00912223          	sw	s1,4(sp)
 1003420:	0e050463          	beqz	a0,1003508 <__floatsisf+0xf8>
 1003424:	41f55793          	srai	a5,a0,0x1f
 1003428:	00a7c433          	xor	s0,a5,a0
 100342c:	40f40433          	sub	s0,s0,a5
 1003430:	01f55493          	srli	s1,a0,0x1f
 1003434:	00040513          	mv	a0,s0
 1003438:	294000ef          	jal	10036cc <__clzsi2>
 100343c:	09e00793          	li	a5,158
 1003440:	00050693          	mv	a3,a0
 1003444:	40a78533          	sub	a0,a5,a0
 1003448:	00700793          	li	a5,7
 100344c:	04d7d063          	bge	a5,a3,100348c <__floatsisf+0x7c>
 1003450:	00800793          	li	a5,8
 1003454:	0cf68063          	beq	a3,a5,1003514 <__floatsisf+0x104>
 1003458:	ff868693          	addi	a3,a3,-8
 100345c:	00d41433          	sll	s0,s0,a3
 1003460:	00941413          	slli	s0,s0,0x9
 1003464:	00945413          	srli	s0,s0,0x9
 1003468:	01751513          	slli	a0,a0,0x17
 100346c:	00c12083          	lw	ra,12(sp)
 1003470:	00856533          	or	a0,a0,s0
 1003474:	00812403          	lw	s0,8(sp)
 1003478:	01f49493          	slli	s1,s1,0x1f
 100347c:	00956533          	or	a0,a0,s1
 1003480:	00412483          	lw	s1,4(sp)
 1003484:	01010113          	addi	sp,sp,16
 1003488:	00008067          	ret
 100348c:	00400793          	li	a5,4
 1003490:	00500713          	li	a4,5
 1003494:	06d7c263          	blt	a5,a3,10034f8 <__floatsisf+0xe8>
 1003498:	01b68793          	addi	a5,a3,27
 100349c:	00f417b3          	sll	a5,s0,a5
 10034a0:	40d70733          	sub	a4,a4,a3
 10034a4:	00f037b3          	snez	a5,a5
 10034a8:	00e45433          	srl	s0,s0,a4
 10034ac:	0087e433          	or	s0,a5,s0
 10034b0:	fc000737          	lui	a4,0xfc000
 10034b4:	fff70713          	addi	a4,a4,-1 # fbffffff <__stack_end+0xfafdffff>
 10034b8:	00747793          	andi	a5,s0,7
 10034bc:	00e47733          	and	a4,s0,a4
 10034c0:	02078863          	beqz	a5,10034f0 <__floatsisf+0xe0>
 10034c4:	00f47413          	andi	s0,s0,15
 10034c8:	00400793          	li	a5,4
 10034cc:	02f40263          	beq	s0,a5,10034f0 <__floatsisf+0xe0>
 10034d0:	00f70733          	add	a4,a4,a5
 10034d4:	00571793          	slli	a5,a4,0x5
 10034d8:	0007dc63          	bgez	a5,10034f0 <__floatsisf+0xe0>
 10034dc:	fc0007b7          	lui	a5,0xfc000
 10034e0:	fff78793          	addi	a5,a5,-1 # fbffffff <__stack_end+0xfafdffff>
 10034e4:	00f77733          	and	a4,a4,a5
 10034e8:	09f00793          	li	a5,159
 10034ec:	40d78533          	sub	a0,a5,a3
 10034f0:	00375413          	srli	s0,a4,0x3
 10034f4:	f6dff06f          	j	1003460 <__floatsisf+0x50>
 10034f8:	fae68ce3          	beq	a3,a4,10034b0 <__floatsisf+0xa0>
 10034fc:	ffb68793          	addi	a5,a3,-5
 1003500:	00f41433          	sll	s0,s0,a5
 1003504:	fadff06f          	j	10034b0 <__floatsisf+0xa0>
 1003508:	00000493          	li	s1,0
 100350c:	00000413          	li	s0,0
 1003510:	f51ff06f          	j	1003460 <__floatsisf+0x50>
 1003514:	09600513          	li	a0,150
 1003518:	f49ff06f          	j	1003460 <__floatsisf+0x50>

0100351c <__extendsfdf2>:
 100351c:	01755713          	srli	a4,a0,0x17
 1003520:	0ff77713          	zext.b	a4,a4
 1003524:	ff010113          	addi	sp,sp,-16
 1003528:	00170793          	addi	a5,a4,1
 100352c:	00812423          	sw	s0,8(sp)
 1003530:	00912223          	sw	s1,4(sp)
 1003534:	00951413          	slli	s0,a0,0x9
 1003538:	00112623          	sw	ra,12(sp)
 100353c:	0fe7f793          	andi	a5,a5,254
 1003540:	00945413          	srli	s0,s0,0x9
 1003544:	01f55493          	srli	s1,a0,0x1f
 1003548:	04078263          	beqz	a5,100358c <__extendsfdf2+0x70>
 100354c:	00345793          	srli	a5,s0,0x3
 1003550:	38070713          	addi	a4,a4,896
 1003554:	01d41413          	slli	s0,s0,0x1d
 1003558:	00c79793          	slli	a5,a5,0xc
 100355c:	00c7d793          	srli	a5,a5,0xc
 1003560:	01471713          	slli	a4,a4,0x14
 1003564:	01f49513          	slli	a0,s1,0x1f
 1003568:	00f76733          	or	a4,a4,a5
 100356c:	00c12083          	lw	ra,12(sp)
 1003570:	00a767b3          	or	a5,a4,a0
 1003574:	00040513          	mv	a0,s0
 1003578:	00812403          	lw	s0,8(sp)
 100357c:	00412483          	lw	s1,4(sp)
 1003580:	00078593          	mv	a1,a5
 1003584:	01010113          	addi	sp,sp,16
 1003588:	00008067          	ret
 100358c:	04071463          	bnez	a4,10035d4 <__extendsfdf2+0xb8>
 1003590:	fc0404e3          	beqz	s0,1003558 <__extendsfdf2+0x3c>
 1003594:	00040513          	mv	a0,s0
 1003598:	134000ef          	jal	10036cc <__clzsi2>
 100359c:	00a00793          	li	a5,10
 10035a0:	02a7c263          	blt	a5,a0,10035c4 <__extendsfdf2+0xa8>
 10035a4:	00b00793          	li	a5,11
 10035a8:	40a787b3          	sub	a5,a5,a0
 10035ac:	01550713          	addi	a4,a0,21
 10035b0:	00f457b3          	srl	a5,s0,a5
 10035b4:	00e41433          	sll	s0,s0,a4
 10035b8:	38900713          	li	a4,905
 10035bc:	40a70733          	sub	a4,a4,a0
 10035c0:	f99ff06f          	j	1003558 <__extendsfdf2+0x3c>
 10035c4:	ff550793          	addi	a5,a0,-11
 10035c8:	00f417b3          	sll	a5,s0,a5
 10035cc:	00000413          	li	s0,0
 10035d0:	fe9ff06f          	j	10035b8 <__extendsfdf2+0x9c>
 10035d4:	00000793          	li	a5,0
 10035d8:	00040a63          	beqz	s0,10035ec <__extendsfdf2+0xd0>
 10035dc:	00345793          	srli	a5,s0,0x3
 10035e0:	00080737          	lui	a4,0x80
 10035e4:	01d41413          	slli	s0,s0,0x1d
 10035e8:	00e7e7b3          	or	a5,a5,a4
 10035ec:	7ff00713          	li	a4,2047
 10035f0:	f69ff06f          	j	1003558 <__extendsfdf2+0x3c>

010035f4 <__mulsi3>:
 10035f4:	00050613          	mv	a2,a0
 10035f8:	00000513          	li	a0,0
 10035fc:	0015f693          	andi	a3,a1,1
 1003600:	00068463          	beqz	a3,1003608 <__mulsi3+0x14>
 1003604:	00c50533          	add	a0,a0,a2
 1003608:	0015d593          	srli	a1,a1,0x1
 100360c:	00161613          	slli	a2,a2,0x1
 1003610:	fe0596e3          	bnez	a1,10035fc <__mulsi3+0x8>
 1003614:	00008067          	ret

01003618 <__divsi3>:
 1003618:	06054063          	bltz	a0,1003678 <__umodsi3+0x10>
 100361c:	0605c663          	bltz	a1,1003688 <__umodsi3+0x20>

01003620 <__hidden___udivsi3>:
 1003620:	00058613          	mv	a2,a1
 1003624:	00050593          	mv	a1,a0
 1003628:	fff00513          	li	a0,-1
 100362c:	02060c63          	beqz	a2,1003664 <__hidden___udivsi3+0x44>
 1003630:	00100693          	li	a3,1
 1003634:	00b67a63          	bgeu	a2,a1,1003648 <__hidden___udivsi3+0x28>
 1003638:	00c05863          	blez	a2,1003648 <__hidden___udivsi3+0x28>
 100363c:	00161613          	slli	a2,a2,0x1
 1003640:	00169693          	slli	a3,a3,0x1
 1003644:	feb66ae3          	bltu	a2,a1,1003638 <__hidden___udivsi3+0x18>
 1003648:	00000513          	li	a0,0
 100364c:	00c5e663          	bltu	a1,a2,1003658 <__hidden___udivsi3+0x38>
 1003650:	40c585b3          	sub	a1,a1,a2
 1003654:	00d56533          	or	a0,a0,a3
 1003658:	0016d693          	srli	a3,a3,0x1
 100365c:	00165613          	srli	a2,a2,0x1
 1003660:	fe0696e3          	bnez	a3,100364c <__hidden___udivsi3+0x2c>
 1003664:	00008067          	ret

01003668 <__umodsi3>:
 1003668:	00008293          	mv	t0,ra
 100366c:	fb5ff0ef          	jal	1003620 <__hidden___udivsi3>
 1003670:	00058513          	mv	a0,a1
 1003674:	00028067          	jr	t0
 1003678:	40a00533          	neg	a0,a0
 100367c:	00b04863          	bgtz	a1,100368c <__umodsi3+0x24>
 1003680:	40b005b3          	neg	a1,a1
 1003684:	f9dff06f          	j	1003620 <__hidden___udivsi3>
 1003688:	40b005b3          	neg	a1,a1
 100368c:	00008293          	mv	t0,ra
 1003690:	f91ff0ef          	jal	1003620 <__hidden___udivsi3>
 1003694:	40a00533          	neg	a0,a0
 1003698:	00028067          	jr	t0

0100369c <__modsi3>:
 100369c:	00008293          	mv	t0,ra
 10036a0:	0005ca63          	bltz	a1,10036b4 <__modsi3+0x18>
 10036a4:	00054c63          	bltz	a0,10036bc <__modsi3+0x20>
 10036a8:	f79ff0ef          	jal	1003620 <__hidden___udivsi3>
 10036ac:	00058513          	mv	a0,a1
 10036b0:	00028067          	jr	t0
 10036b4:	40b005b3          	neg	a1,a1
 10036b8:	fe0558e3          	bgez	a0,10036a8 <__modsi3+0xc>
 10036bc:	40a00533          	neg	a0,a0
 10036c0:	f61ff0ef          	jal	1003620 <__hidden___udivsi3>
 10036c4:	40b00533          	neg	a0,a1
 10036c8:	00028067          	jr	t0

010036cc <__clzsi2>:
 10036cc:	000107b7          	lui	a5,0x10
 10036d0:	02f57a63          	bgeu	a0,a5,1003704 <__clzsi2+0x38>
 10036d4:	10053793          	sltiu	a5,a0,256
 10036d8:	0017b793          	seqz	a5,a5
 10036dc:	00379793          	slli	a5,a5,0x3
 10036e0:	01007737          	lui	a4,0x1007
 10036e4:	00f55533          	srl	a0,a0,a5
 10036e8:	26470713          	addi	a4,a4,612 # 1007264 <__clz_tab>
 10036ec:	00a70733          	add	a4,a4,a0
 10036f0:	00074503          	lbu	a0,0(a4)
 10036f4:	02000693          	li	a3,32
 10036f8:	40f686b3          	sub	a3,a3,a5
 10036fc:	40a68533          	sub	a0,a3,a0
 1003700:	00008067          	ret
 1003704:	01000737          	lui	a4,0x1000
 1003708:	01800793          	li	a5,24
 100370c:	fce57ae3          	bgeu	a0,a4,10036e0 <__clzsi2+0x14>
 1003710:	01000793          	li	a5,16
 1003714:	fcdff06f          	j	10036e0 <__clzsi2+0x14>

01003718 <memset>:
 1003718:	00f00313          	li	t1,15
 100371c:	00050713          	mv	a4,a0
 1003720:	02c37e63          	bgeu	t1,a2,100375c <memset+0x44>
 1003724:	00f77793          	andi	a5,a4,15
 1003728:	0a079063          	bnez	a5,10037c8 <memset+0xb0>
 100372c:	08059263          	bnez	a1,10037b0 <memset+0x98>
 1003730:	ff067693          	andi	a3,a2,-16
 1003734:	00f67613          	andi	a2,a2,15
 1003738:	00e686b3          	add	a3,a3,a4
 100373c:	00b72023          	sw	a1,0(a4) # 1000000 <_start>
 1003740:	00b72223          	sw	a1,4(a4)
 1003744:	00b72423          	sw	a1,8(a4)
 1003748:	00b72623          	sw	a1,12(a4)
 100374c:	01070713          	addi	a4,a4,16
 1003750:	fed766e3          	bltu	a4,a3,100373c <memset+0x24>
 1003754:	00061463          	bnez	a2,100375c <memset+0x44>
 1003758:	00008067          	ret
 100375c:	40c306b3          	sub	a3,t1,a2
 1003760:	00269693          	slli	a3,a3,0x2
 1003764:	00000297          	auipc	t0,0x0
 1003768:	005686b3          	add	a3,a3,t0
 100376c:	00c68067          	jr	12(a3)
 1003770:	00b70723          	sb	a1,14(a4)
 1003774:	00b706a3          	sb	a1,13(a4)
 1003778:	00b70623          	sb	a1,12(a4)
 100377c:	00b705a3          	sb	a1,11(a4)
 1003780:	00b70523          	sb	a1,10(a4)
 1003784:	00b704a3          	sb	a1,9(a4)
 1003788:	00b70423          	sb	a1,8(a4)
 100378c:	00b703a3          	sb	a1,7(a4)
 1003790:	00b70323          	sb	a1,6(a4)
 1003794:	00b702a3          	sb	a1,5(a4)
 1003798:	00b70223          	sb	a1,4(a4)
 100379c:	00b701a3          	sb	a1,3(a4)
 10037a0:	00b70123          	sb	a1,2(a4)
 10037a4:	00b700a3          	sb	a1,1(a4)
 10037a8:	00b70023          	sb	a1,0(a4)
 10037ac:	00008067          	ret
 10037b0:	0ff5f593          	zext.b	a1,a1
 10037b4:	00859693          	slli	a3,a1,0x8
 10037b8:	00d5e5b3          	or	a1,a1,a3
 10037bc:	01059693          	slli	a3,a1,0x10
 10037c0:	00d5e5b3          	or	a1,a1,a3
 10037c4:	f6dff06f          	j	1003730 <memset+0x18>
 10037c8:	00279693          	slli	a3,a5,0x2
 10037cc:	00000297          	auipc	t0,0x0
 10037d0:	005686b3          	add	a3,a3,t0
 10037d4:	00008293          	mv	t0,ra
 10037d8:	fa0680e7          	jalr	-96(a3)
 10037dc:	00028093          	mv	ra,t0
 10037e0:	ff078793          	addi	a5,a5,-16 # fff0 <__heap_size+0xeff0>
 10037e4:	40f70733          	sub	a4,a4,a5
 10037e8:	00f60633          	add	a2,a2,a5
 10037ec:	f6c378e3          	bgeu	t1,a2,100375c <memset+0x44>
 10037f0:	f3dff06f          	j	100372c <memset+0x14>

010037f4 <main>:
 10037f4:	f9010113          	addi	sp,sp,-112
 10037f8:	01007637          	lui	a2,0x1007
 10037fc:	01007737          	lui	a4,0x1007
 1003800:	05812423          	sw	s8,72(sp)
 1003804:	05912223          	sw	s9,68(sp)
 1003808:	4a062c03          	lw	s8,1184(a2) # 10074a0 <halF+0x38>
 100380c:	4a462c83          	lw	s9,1188(a2)
 1003810:	47872603          	lw	a2,1144(a4) # 1007478 <halF+0x10>
 1003814:	47c72703          	lw	a4,1148(a4)
 1003818:	010077b7          	lui	a5,0x1007
 100381c:	010076b7          	lui	a3,0x1007
 1003820:	02e12223          	sw	a4,36(sp)
 1003824:	4807a703          	lw	a4,1152(a5) # 1007480 <halF+0x18>
 1003828:	4847a783          	lw	a5,1156(a5)
 100382c:	4bc6a803          	lw	a6,1212(a3) # 10074bc <halF+0x54>
 1003830:	06112623          	sw	ra,108(sp)
 1003834:	02f12623          	sw	a5,44(sp)
 1003838:	4b86a783          	lw	a5,1208(a3)
 100383c:	06812423          	sw	s0,104(sp)
 1003840:	06912223          	sw	s1,100(sp)
 1003844:	00f12823          	sw	a5,16(sp)
 1003848:	010087b7          	lui	a5,0x1008
 100384c:	b0878793          	addi	a5,a5,-1272 # 1007b08 <E1>
 1003850:	07212023          	sw	s2,96(sp)
 1003854:	05312e23          	sw	s3,92(sp)
 1003858:	05412c23          	sw	s4,88(sp)
 100385c:	05512a23          	sw	s5,84(sp)
 1003860:	05612823          	sw	s6,80(sp)
 1003864:	05712623          	sw	s7,76(sp)
 1003868:	05a12023          	sw	s10,64(sp)
 100386c:	03b12e23          	sw	s11,60(sp)
 1003870:	02c12023          	sw	a2,32(sp)
 1003874:	02e12423          	sw	a4,40(sp)
 1003878:	01012a23          	sw	a6,20(sp)
 100387c:	00f12c23          	sw	a5,24(sp)
 1003880:	00000513          	li	a0,0
 1003884:	ed0fd0ef          	jal	1000f54 <time>
 1003888:	010087b7          	lui	a5,0x1008
 100388c:	cb87a823          	sw	s8,-848(a5) # 1007cb0 <T>
 1003890:	cb97aa23          	sw	s9,-844(a5)
 1003894:	010077b7          	lui	a5,0x1007
 1003898:	4ac7a803          	lw	a6,1196(a5) # 10074ac <halF+0x44>
 100389c:	4a87a783          	lw	a5,1192(a5)
 10038a0:	01008737          	lui	a4,0x1008
 10038a4:	02012a03          	lw	s4,32(sp)
 10038a8:	caf72423          	sw	a5,-856(a4) # 1007ca8 <T1>
 10038ac:	010077b7          	lui	a5,0x1007
 10038b0:	02412a83          	lw	s5,36(sp)
 10038b4:	cb072623          	sw	a6,-852(a4)
 10038b8:	4947a803          	lw	a6,1172(a5) # 1007494 <halF+0x2c>
 10038bc:	4907a783          	lw	a5,1168(a5)
 10038c0:	02812b83          	lw	s7,40(sp)
 10038c4:	02c12b03          	lw	s6,44(sp)
 10038c8:	01008737          	lui	a4,0x1008
 10038cc:	00a12e23          	sw	a0,28(sp)
 10038d0:	caf72023          	sw	a5,-864(a4) # 1007ca0 <T2>
 10038d4:	cb072223          	sw	a6,-860(a4)
 10038d8:	000a0413          	mv	s0,s4
 10038dc:	000a8493          	mv	s1,s5
 10038e0:	000a0913          	mv	s2,s4
 10038e4:	000a8993          	mv	s3,s5
 10038e8:	07800d13          	li	s10,120
 10038ec:	000a0613          	mv	a2,s4
 10038f0:	000a8693          	mv	a3,s5
 10038f4:	000b8513          	mv	a0,s7
 10038f8:	000b0593          	mv	a1,s6
 10038fc:	e64fd0ef          	jal	1000f60 <__adddf3>
 1003900:	00090613          	mv	a2,s2
 1003904:	00098693          	mv	a3,s3
 1003908:	e58fd0ef          	jal	1000f60 <__adddf3>
 100390c:	00040613          	mv	a2,s0
 1003910:	00048693          	mv	a3,s1
 1003914:	e2dfe0ef          	jal	1002740 <__subdf3>
 1003918:	000c0613          	mv	a2,s8
 100391c:	000c8693          	mv	a3,s9
 1003920:	f84fe0ef          	jal	10020a4 <__muldf3>
 1003924:	000a0613          	mv	a2,s4
 1003928:	000a8693          	mv	a3,s5
 100392c:	00050b93          	mv	s7,a0
 1003930:	00058b13          	mv	s6,a1
 1003934:	e2cfd0ef          	jal	1000f60 <__adddf3>
 1003938:	00090613          	mv	a2,s2
 100393c:	00098693          	mv	a3,s3
 1003940:	e01fe0ef          	jal	1002740 <__subdf3>
 1003944:	00040613          	mv	a2,s0
 1003948:	00048693          	mv	a3,s1
 100394c:	e14fd0ef          	jal	1000f60 <__adddf3>
 1003950:	000c0613          	mv	a2,s8
 1003954:	000c8693          	mv	a3,s9
 1003958:	f4cfe0ef          	jal	10020a4 <__muldf3>
 100395c:	00050613          	mv	a2,a0
 1003960:	00058693          	mv	a3,a1
 1003964:	00050a13          	mv	s4,a0
 1003968:	00058a93          	mv	s5,a1
 100396c:	000b8513          	mv	a0,s7
 1003970:	000b0593          	mv	a1,s6
 1003974:	dcdfe0ef          	jal	1002740 <__subdf3>
 1003978:	00090613          	mv	a2,s2
 100397c:	00098693          	mv	a3,s3
 1003980:	de0fd0ef          	jal	1000f60 <__adddf3>
 1003984:	00040613          	mv	a2,s0
 1003988:	00048693          	mv	a3,s1
 100398c:	01007db7          	lui	s11,0x1007
 1003990:	dd0fd0ef          	jal	1000f60 <__adddf3>
 1003994:	4a0da603          	lw	a2,1184(s11) # 10074a0 <halF+0x38>
 1003998:	4a4da683          	lw	a3,1188(s11)
 100399c:	fffd0d13          	addi	s10,s10,-1
 10039a0:	f04fe0ef          	jal	10020a4 <__muldf3>
 10039a4:	00050913          	mv	s2,a0
 10039a8:	00058993          	mv	s3,a1
 10039ac:	000b8613          	mv	a2,s7
 10039b0:	000b0693          	mv	a3,s6
 10039b4:	000a0513          	mv	a0,s4
 10039b8:	000a8593          	mv	a1,s5
 10039bc:	d85fe0ef          	jal	1002740 <__subdf3>
 10039c0:	00090613          	mv	a2,s2
 10039c4:	00098693          	mv	a3,s3
 10039c8:	d98fd0ef          	jal	1000f60 <__adddf3>
 10039cc:	00040613          	mv	a2,s0
 10039d0:	00048693          	mv	a3,s1
 10039d4:	d8cfd0ef          	jal	1000f60 <__adddf3>
 10039d8:	4a0da603          	lw	a2,1184(s11)
 10039dc:	4a4da683          	lw	a3,1188(s11)
 10039e0:	ec4fe0ef          	jal	10020a4 <__muldf3>
 10039e4:	00050413          	mv	s0,a0
 10039e8:	00058493          	mv	s1,a1
 10039ec:	f00d10e3          	bnez	s10,10038ec <main+0xf8>
 10039f0:	010077b7          	lui	a5,0x1007
 10039f4:	4b07ad03          	lw	s10,1200(a5) # 10074b0 <halF+0x48>
 10039f8:	4b47ad83          	lw	s11,1204(a5)
 10039fc:	00090413          	mv	s0,s2
 1003a00:	00098493          	mv	s1,s3
 1003a04:	08c00793          	li	a5,140
 1003a08:	00058993          	mv	s3,a1
 1003a0c:	00050913          	mv	s2,a0
 1003a10:	000b8613          	mv	a2,s7
 1003a14:	000b0693          	mv	a3,s6
 1003a18:	000a0513          	mv	a0,s4
 1003a1c:	000a8593          	mv	a1,s5
 1003a20:	00f12623          	sw	a5,12(sp)
 1003a24:	d3cfd0ef          	jal	1000f60 <__adddf3>
 1003a28:	00040613          	mv	a2,s0
 1003a2c:	00048693          	mv	a3,s1
 1003a30:	d30fd0ef          	jal	1000f60 <__adddf3>
 1003a34:	00090613          	mv	a2,s2
 1003a38:	00098693          	mv	a3,s3
 1003a3c:	d05fe0ef          	jal	1002740 <__subdf3>
 1003a40:	000c0613          	mv	a2,s8
 1003a44:	000c8693          	mv	a3,s9
 1003a48:	e5cfe0ef          	jal	10020a4 <__muldf3>
 1003a4c:	00050b13          	mv	s6,a0
 1003a50:	00058b93          	mv	s7,a1
 1003a54:	00050613          	mv	a2,a0
 1003a58:	00058693          	mv	a3,a1
 1003a5c:	000a0513          	mv	a0,s4
 1003a60:	000a8593          	mv	a1,s5
 1003a64:	cfcfd0ef          	jal	1000f60 <__adddf3>
 1003a68:	00040613          	mv	a2,s0
 1003a6c:	00048693          	mv	a3,s1
 1003a70:	cd1fe0ef          	jal	1002740 <__subdf3>
 1003a74:	00090613          	mv	a2,s2
 1003a78:	00098693          	mv	a3,s3
 1003a7c:	ce4fd0ef          	jal	1000f60 <__adddf3>
 1003a80:	000c0613          	mv	a2,s8
 1003a84:	000c8693          	mv	a3,s9
 1003a88:	e1cfe0ef          	jal	10020a4 <__muldf3>
 1003a8c:	00050a13          	mv	s4,a0
 1003a90:	00058a93          	mv	s5,a1
 1003a94:	00050613          	mv	a2,a0
 1003a98:	00058693          	mv	a3,a1
 1003a9c:	000b0513          	mv	a0,s6
 1003aa0:	000b8593          	mv	a1,s7
 1003aa4:	01612023          	sw	s6,0(sp)
 1003aa8:	01712223          	sw	s7,4(sp)
 1003aac:	c95fe0ef          	jal	1002740 <__subdf3>
 1003ab0:	00040613          	mv	a2,s0
 1003ab4:	00048693          	mv	a3,s1
 1003ab8:	ca8fd0ef          	jal	1000f60 <__adddf3>
 1003abc:	00090613          	mv	a2,s2
 1003ac0:	00098693          	mv	a3,s3
 1003ac4:	c9cfd0ef          	jal	1000f60 <__adddf3>
 1003ac8:	000c0613          	mv	a2,s8
 1003acc:	000c8693          	mv	a3,s9
 1003ad0:	dd4fe0ef          	jal	10020a4 <__muldf3>
 1003ad4:	00012603          	lw	a2,0(sp)
 1003ad8:	00412683          	lw	a3,4(sp)
 1003adc:	00050b13          	mv	s6,a0
 1003ae0:	00058b93          	mv	s7,a1
 1003ae4:	000a0513          	mv	a0,s4
 1003ae8:	000a8593          	mv	a1,s5
 1003aec:	c55fe0ef          	jal	1002740 <__subdf3>
 1003af0:	000b0613          	mv	a2,s6
 1003af4:	000b8693          	mv	a3,s7
 1003af8:	c68fd0ef          	jal	1000f60 <__adddf3>
 1003afc:	00090613          	mv	a2,s2
 1003b00:	00098693          	mv	a3,s3
 1003b04:	c5cfd0ef          	jal	1000f60 <__adddf3>
 1003b08:	000d0613          	mv	a2,s10
 1003b0c:	000d8693          	mv	a3,s11
 1003b10:	d94fe0ef          	jal	10020a4 <__muldf3>
 1003b14:	00012603          	lw	a2,0(sp)
 1003b18:	00412683          	lw	a3,4(sp)
 1003b1c:	00050413          	mv	s0,a0
 1003b20:	00058493          	mv	s1,a1
 1003b24:	000a0513          	mv	a0,s4
 1003b28:	000a8593          	mv	a1,s5
 1003b2c:	c34fd0ef          	jal	1000f60 <__adddf3>
 1003b30:	000b0613          	mv	a2,s6
 1003b34:	000b8693          	mv	a3,s7
 1003b38:	c28fd0ef          	jal	1000f60 <__adddf3>
 1003b3c:	00040613          	mv	a2,s0
 1003b40:	00048693          	mv	a3,s1
 1003b44:	bfdfe0ef          	jal	1002740 <__subdf3>
 1003b48:	000c0613          	mv	a2,s8
 1003b4c:	000c8693          	mv	a3,s9
 1003b50:	d54fe0ef          	jal	10020a4 <__muldf3>
 1003b54:	000a0913          	mv	s2,s4
 1003b58:	000a8993          	mv	s3,s5
 1003b5c:	00050a13          	mv	s4,a0
 1003b60:	00058a93          	mv	s5,a1
 1003b64:	00050613          	mv	a2,a0
 1003b68:	00058693          	mv	a3,a1
 1003b6c:	00090513          	mv	a0,s2
 1003b70:	00098593          	mv	a1,s3
 1003b74:	becfd0ef          	jal	1000f60 <__adddf3>
 1003b78:	000b0613          	mv	a2,s6
 1003b7c:	000b8693          	mv	a3,s7
 1003b80:	bc1fe0ef          	jal	1002740 <__subdf3>
 1003b84:	00040613          	mv	a2,s0
 1003b88:	00048693          	mv	a3,s1
 1003b8c:	bd4fd0ef          	jal	1000f60 <__adddf3>
 1003b90:	000c0613          	mv	a2,s8
 1003b94:	000c8693          	mv	a3,s9
 1003b98:	d0cfe0ef          	jal	10020a4 <__muldf3>
 1003b9c:	00050913          	mv	s2,a0
 1003ba0:	00058993          	mv	s3,a1
 1003ba4:	00050613          	mv	a2,a0
 1003ba8:	00058693          	mv	a3,a1
 1003bac:	000a0513          	mv	a0,s4
 1003bb0:	000a8593          	mv	a1,s5
 1003bb4:	b8dfe0ef          	jal	1002740 <__subdf3>
 1003bb8:	000b0613          	mv	a2,s6
 1003bbc:	000b8693          	mv	a3,s7
 1003bc0:	ba0fd0ef          	jal	1000f60 <__adddf3>
 1003bc4:	00040613          	mv	a2,s0
 1003bc8:	00048693          	mv	a3,s1
 1003bcc:	b94fd0ef          	jal	1000f60 <__adddf3>
 1003bd0:	000c0613          	mv	a2,s8
 1003bd4:	000c8693          	mv	a3,s9
 1003bd8:	cccfe0ef          	jal	10020a4 <__muldf3>
 1003bdc:	00040b13          	mv	s6,s0
 1003be0:	00048b93          	mv	s7,s1
 1003be4:	00050413          	mv	s0,a0
 1003be8:	00058493          	mv	s1,a1
 1003bec:	000a0613          	mv	a2,s4
 1003bf0:	000a8693          	mv	a3,s5
 1003bf4:	00090513          	mv	a0,s2
 1003bf8:	00098593          	mv	a1,s3
 1003bfc:	b45fe0ef          	jal	1002740 <__subdf3>
 1003c00:	00040613          	mv	a2,s0
 1003c04:	00048693          	mv	a3,s1
 1003c08:	b58fd0ef          	jal	1000f60 <__adddf3>
 1003c0c:	000b0613          	mv	a2,s6
 1003c10:	000b8693          	mv	a3,s7
 1003c14:	b4cfd0ef          	jal	1000f60 <__adddf3>
 1003c18:	000d0613          	mv	a2,s10
 1003c1c:	000d8693          	mv	a3,s11
 1003c20:	c84fe0ef          	jal	10020a4 <__muldf3>
 1003c24:	00050b13          	mv	s6,a0
 1003c28:	00058b93          	mv	s7,a1
 1003c2c:	000a0613          	mv	a2,s4
 1003c30:	000a8693          	mv	a3,s5
 1003c34:	00090513          	mv	a0,s2
 1003c38:	00098593          	mv	a1,s3
 1003c3c:	b24fd0ef          	jal	1000f60 <__adddf3>
 1003c40:	00040613          	mv	a2,s0
 1003c44:	00048693          	mv	a3,s1
 1003c48:	b18fd0ef          	jal	1000f60 <__adddf3>
 1003c4c:	000b0613          	mv	a2,s6
 1003c50:	000b8693          	mv	a3,s7
 1003c54:	aedfe0ef          	jal	1002740 <__subdf3>
 1003c58:	000c0613          	mv	a2,s8
 1003c5c:	000c8693          	mv	a3,s9
 1003c60:	c44fe0ef          	jal	10020a4 <__muldf3>
 1003c64:	00090613          	mv	a2,s2
 1003c68:	00098693          	mv	a3,s3
 1003c6c:	00050a13          	mv	s4,a0
 1003c70:	00058a93          	mv	s5,a1
 1003c74:	aecfd0ef          	jal	1000f60 <__adddf3>
 1003c78:	00040613          	mv	a2,s0
 1003c7c:	00048693          	mv	a3,s1
 1003c80:	ac1fe0ef          	jal	1002740 <__subdf3>
 1003c84:	000b0613          	mv	a2,s6
 1003c88:	000b8693          	mv	a3,s7
 1003c8c:	ad4fd0ef          	jal	1000f60 <__adddf3>
 1003c90:	000c0613          	mv	a2,s8
 1003c94:	000c8693          	mv	a3,s9
 1003c98:	c0cfe0ef          	jal	10020a4 <__muldf3>
 1003c9c:	00050913          	mv	s2,a0
 1003ca0:	00058993          	mv	s3,a1
 1003ca4:	00050613          	mv	a2,a0
 1003ca8:	00058693          	mv	a3,a1
 1003cac:	000a0513          	mv	a0,s4
 1003cb0:	000a8593          	mv	a1,s5
 1003cb4:	a8dfe0ef          	jal	1002740 <__subdf3>
 1003cb8:	00040613          	mv	a2,s0
 1003cbc:	00048693          	mv	a3,s1
 1003cc0:	aa0fd0ef          	jal	1000f60 <__adddf3>
 1003cc4:	000b0613          	mv	a2,s6
 1003cc8:	000b8693          	mv	a3,s7
 1003ccc:	a94fd0ef          	jal	1000f60 <__adddf3>
 1003cd0:	000c0613          	mv	a2,s8
 1003cd4:	000c8693          	mv	a3,s9
 1003cd8:	bccfe0ef          	jal	10020a4 <__muldf3>
 1003cdc:	00050413          	mv	s0,a0
 1003ce0:	00058493          	mv	s1,a1
 1003ce4:	000a0613          	mv	a2,s4
 1003ce8:	000a8693          	mv	a3,s5
 1003cec:	00090513          	mv	a0,s2
 1003cf0:	00098593          	mv	a1,s3
 1003cf4:	01412023          	sw	s4,0(sp)
 1003cf8:	01512223          	sw	s5,4(sp)
 1003cfc:	a45fe0ef          	jal	1002740 <__subdf3>
 1003d00:	00040613          	mv	a2,s0
 1003d04:	00048693          	mv	a3,s1
 1003d08:	a58fd0ef          	jal	1000f60 <__adddf3>
 1003d0c:	000b0613          	mv	a2,s6
 1003d10:	000b8693          	mv	a3,s7
 1003d14:	a4cfd0ef          	jal	1000f60 <__adddf3>
 1003d18:	000d0613          	mv	a2,s10
 1003d1c:	000d8693          	mv	a3,s11
 1003d20:	b84fe0ef          	jal	10020a4 <__muldf3>
 1003d24:	00012603          	lw	a2,0(sp)
 1003d28:	00412683          	lw	a3,4(sp)
 1003d2c:	00050a13          	mv	s4,a0
 1003d30:	00058a93          	mv	s5,a1
 1003d34:	00090513          	mv	a0,s2
 1003d38:	00098593          	mv	a1,s3
 1003d3c:	a24fd0ef          	jal	1000f60 <__adddf3>
 1003d40:	00040613          	mv	a2,s0
 1003d44:	00048693          	mv	a3,s1
 1003d48:	a18fd0ef          	jal	1000f60 <__adddf3>
 1003d4c:	000a0613          	mv	a2,s4
 1003d50:	000a8693          	mv	a3,s5
 1003d54:	9edfe0ef          	jal	1002740 <__subdf3>
 1003d58:	000c0613          	mv	a2,s8
 1003d5c:	000c8693          	mv	a3,s9
 1003d60:	b44fe0ef          	jal	10020a4 <__muldf3>
 1003d64:	00090613          	mv	a2,s2
 1003d68:	00098693          	mv	a3,s3
 1003d6c:	00050b13          	mv	s6,a0
 1003d70:	00058b93          	mv	s7,a1
 1003d74:	9ecfd0ef          	jal	1000f60 <__adddf3>
 1003d78:	00040613          	mv	a2,s0
 1003d7c:	00048693          	mv	a3,s1
 1003d80:	9c1fe0ef          	jal	1002740 <__subdf3>
 1003d84:	000a0613          	mv	a2,s4
 1003d88:	000a8693          	mv	a3,s5
 1003d8c:	9d4fd0ef          	jal	1000f60 <__adddf3>
 1003d90:	000c0613          	mv	a2,s8
 1003d94:	000c8693          	mv	a3,s9
 1003d98:	b0cfe0ef          	jal	10020a4 <__muldf3>
 1003d9c:	00050913          	mv	s2,a0
 1003da0:	00058993          	mv	s3,a1
 1003da4:	00050613          	mv	a2,a0
 1003da8:	00058693          	mv	a3,a1
 1003dac:	000b0513          	mv	a0,s6
 1003db0:	000b8593          	mv	a1,s7
 1003db4:	98dfe0ef          	jal	1002740 <__subdf3>
 1003db8:	00040613          	mv	a2,s0
 1003dbc:	00048693          	mv	a3,s1
 1003dc0:	9a0fd0ef          	jal	1000f60 <__adddf3>
 1003dc4:	000a0613          	mv	a2,s4
 1003dc8:	000a8693          	mv	a3,s5
 1003dcc:	994fd0ef          	jal	1000f60 <__adddf3>
 1003dd0:	000c0613          	mv	a2,s8
 1003dd4:	000c8693          	mv	a3,s9
 1003dd8:	accfe0ef          	jal	10020a4 <__muldf3>
 1003ddc:	00050413          	mv	s0,a0
 1003de0:	00058493          	mv	s1,a1
 1003de4:	000b0613          	mv	a2,s6
 1003de8:	000b8693          	mv	a3,s7
 1003dec:	00090513          	mv	a0,s2
 1003df0:	00098593          	mv	a1,s3
 1003df4:	94dfe0ef          	jal	1002740 <__subdf3>
 1003df8:	00040613          	mv	a2,s0
 1003dfc:	00048693          	mv	a3,s1
 1003e00:	960fd0ef          	jal	1000f60 <__adddf3>
 1003e04:	000a0613          	mv	a2,s4
 1003e08:	000a8693          	mv	a3,s5
 1003e0c:	954fd0ef          	jal	1000f60 <__adddf3>
 1003e10:	000d0613          	mv	a2,s10
 1003e14:	000d8693          	mv	a3,s11
 1003e18:	a8cfe0ef          	jal	10020a4 <__muldf3>
 1003e1c:	00050a13          	mv	s4,a0
 1003e20:	00058a93          	mv	s5,a1
 1003e24:	000b0613          	mv	a2,s6
 1003e28:	000b8693          	mv	a3,s7
 1003e2c:	00090513          	mv	a0,s2
 1003e30:	00098593          	mv	a1,s3
 1003e34:	92cfd0ef          	jal	1000f60 <__adddf3>
 1003e38:	00040613          	mv	a2,s0
 1003e3c:	00048693          	mv	a3,s1
 1003e40:	920fd0ef          	jal	1000f60 <__adddf3>
 1003e44:	000a0613          	mv	a2,s4
 1003e48:	000a8693          	mv	a3,s5
 1003e4c:	8f5fe0ef          	jal	1002740 <__subdf3>
 1003e50:	000c0613          	mv	a2,s8
 1003e54:	000c8693          	mv	a3,s9
 1003e58:	a4cfe0ef          	jal	10020a4 <__muldf3>
 1003e5c:	00090613          	mv	a2,s2
 1003e60:	00098693          	mv	a3,s3
 1003e64:	00050b13          	mv	s6,a0
 1003e68:	00058b93          	mv	s7,a1
 1003e6c:	8f4fd0ef          	jal	1000f60 <__adddf3>
 1003e70:	00040613          	mv	a2,s0
 1003e74:	00048693          	mv	a3,s1
 1003e78:	8c9fe0ef          	jal	1002740 <__subdf3>
 1003e7c:	000a0613          	mv	a2,s4
 1003e80:	000a8693          	mv	a3,s5
 1003e84:	8dcfd0ef          	jal	1000f60 <__adddf3>
 1003e88:	000c0613          	mv	a2,s8
 1003e8c:	000c8693          	mv	a3,s9
 1003e90:	a14fe0ef          	jal	10020a4 <__muldf3>
 1003e94:	00050913          	mv	s2,a0
 1003e98:	00058993          	mv	s3,a1
 1003e9c:	00050613          	mv	a2,a0
 1003ea0:	00058693          	mv	a3,a1
 1003ea4:	000b0513          	mv	a0,s6
 1003ea8:	000b8593          	mv	a1,s7
 1003eac:	895fe0ef          	jal	1002740 <__subdf3>
 1003eb0:	00040613          	mv	a2,s0
 1003eb4:	00048693          	mv	a3,s1
 1003eb8:	8a8fd0ef          	jal	1000f60 <__adddf3>
 1003ebc:	000a0613          	mv	a2,s4
 1003ec0:	000a8693          	mv	a3,s5
 1003ec4:	89cfd0ef          	jal	1000f60 <__adddf3>
 1003ec8:	000c0613          	mv	a2,s8
 1003ecc:	000c8693          	mv	a3,s9
 1003ed0:	9d4fe0ef          	jal	10020a4 <__muldf3>
 1003ed4:	00050413          	mv	s0,a0
 1003ed8:	00058493          	mv	s1,a1
 1003edc:	000b0613          	mv	a2,s6
 1003ee0:	000b8693          	mv	a3,s7
 1003ee4:	00090513          	mv	a0,s2
 1003ee8:	00098593          	mv	a1,s3
 1003eec:	855fe0ef          	jal	1002740 <__subdf3>
 1003ef0:	00040613          	mv	a2,s0
 1003ef4:	00048693          	mv	a3,s1
 1003ef8:	868fd0ef          	jal	1000f60 <__adddf3>
 1003efc:	000a0613          	mv	a2,s4
 1003f00:	000a8693          	mv	a3,s5
 1003f04:	85cfd0ef          	jal	1000f60 <__adddf3>
 1003f08:	000d0613          	mv	a2,s10
 1003f0c:	000d8693          	mv	a3,s11
 1003f10:	994fe0ef          	jal	10020a4 <__muldf3>
 1003f14:	00050a13          	mv	s4,a0
 1003f18:	00058a93          	mv	s5,a1
 1003f1c:	00090613          	mv	a2,s2
 1003f20:	00098693          	mv	a3,s3
 1003f24:	000b0513          	mv	a0,s6
 1003f28:	000b8593          	mv	a1,s7
 1003f2c:	834fd0ef          	jal	1000f60 <__adddf3>
 1003f30:	00040613          	mv	a2,s0
 1003f34:	00048693          	mv	a3,s1
 1003f38:	828fd0ef          	jal	1000f60 <__adddf3>
 1003f3c:	000a0613          	mv	a2,s4
 1003f40:	000a8693          	mv	a3,s5
 1003f44:	ffcfe0ef          	jal	1002740 <__subdf3>
 1003f48:	000c0613          	mv	a2,s8
 1003f4c:	000c8693          	mv	a3,s9
 1003f50:	954fe0ef          	jal	10020a4 <__muldf3>
 1003f54:	00050b93          	mv	s7,a0
 1003f58:	00058b13          	mv	s6,a1
 1003f5c:	00050613          	mv	a2,a0
 1003f60:	00058693          	mv	a3,a1
 1003f64:	00090513          	mv	a0,s2
 1003f68:	00098593          	mv	a1,s3
 1003f6c:	ff5fc0ef          	jal	1000f60 <__adddf3>
 1003f70:	00040613          	mv	a2,s0
 1003f74:	00048693          	mv	a3,s1
 1003f78:	fc8fe0ef          	jal	1002740 <__subdf3>
 1003f7c:	000a0613          	mv	a2,s4
 1003f80:	000a8693          	mv	a3,s5
 1003f84:	fddfc0ef          	jal	1000f60 <__adddf3>
 1003f88:	000c0613          	mv	a2,s8
 1003f8c:	000c8693          	mv	a3,s9
 1003f90:	914fe0ef          	jal	10020a4 <__muldf3>
 1003f94:	000a0913          	mv	s2,s4
 1003f98:	000a8993          	mv	s3,s5
 1003f9c:	00050613          	mv	a2,a0
 1003fa0:	00058693          	mv	a3,a1
 1003fa4:	00050a13          	mv	s4,a0
 1003fa8:	00058a93          	mv	s5,a1
 1003fac:	000b8513          	mv	a0,s7
 1003fb0:	000b0593          	mv	a1,s6
 1003fb4:	f8cfe0ef          	jal	1002740 <__subdf3>
 1003fb8:	00040613          	mv	a2,s0
 1003fbc:	00048693          	mv	a3,s1
 1003fc0:	fa1fc0ef          	jal	1000f60 <__adddf3>
 1003fc4:	00090613          	mv	a2,s2
 1003fc8:	00098693          	mv	a3,s3
 1003fcc:	f95fc0ef          	jal	1000f60 <__adddf3>
 1003fd0:	000c0613          	mv	a2,s8
 1003fd4:	000c8693          	mv	a3,s9
 1003fd8:	8ccfe0ef          	jal	10020a4 <__muldf3>
 1003fdc:	00050413          	mv	s0,a0
 1003fe0:	00058493          	mv	s1,a1
 1003fe4:	000b8613          	mv	a2,s7
 1003fe8:	000b0693          	mv	a3,s6
 1003fec:	000a0513          	mv	a0,s4
 1003ff0:	000a8593          	mv	a1,s5
 1003ff4:	f4cfe0ef          	jal	1002740 <__subdf3>
 1003ff8:	00040613          	mv	a2,s0
 1003ffc:	00048693          	mv	a3,s1
 1004000:	f61fc0ef          	jal	1000f60 <__adddf3>
 1004004:	00090613          	mv	a2,s2
 1004008:	00098693          	mv	a3,s3
 100400c:	f55fc0ef          	jal	1000f60 <__adddf3>
 1004010:	000d0613          	mv	a2,s10
 1004014:	000d8693          	mv	a3,s11
 1004018:	88cfe0ef          	jal	10020a4 <__muldf3>
 100401c:	00c12783          	lw	a5,12(sp)
 1004020:	00050913          	mv	s2,a0
 1004024:	00058993          	mv	s3,a1
 1004028:	fff78793          	addi	a5,a5,-1
 100402c:	9e0792e3          	bnez	a5,1003a10 <main+0x21c>
 1004030:	01812683          	lw	a3,24(sp)
 1004034:	00300793          	li	a5,3
 1004038:	01008737          	lui	a4,0x1008
 100403c:	c8f72823          	sw	a5,-880(a4) # 1007c90 <L>
 1004040:	01007737          	lui	a4,0x1007
 1004044:	02b6a223          	sw	a1,36(a3)
 1004048:	48c72603          	lw	a2,1164(a4) # 100748c <halF+0x24>
 100404c:	48872583          	lw	a1,1160(a4)
 1004050:	000027b7          	lui	a5,0x2
 1004054:	01007737          	lui	a4,0x1007
 1004058:	02a6a023          	sw	a0,32(a3)
 100405c:	81078793          	addi	a5,a5,-2032 # 1810 <__heap_size+0x810>
 1004060:	49072683          	lw	a3,1168(a4) # 1007490 <halF+0x28>
 1004064:	49472703          	lw	a4,1172(a4)
 1004068:	0140006f          	j	100407c <main+0x888>
 100406c:	00058693          	mv	a3,a1
 1004070:	00060713          	mv	a4,a2
 1004074:	00080593          	mv	a1,a6
 1004078:	00050613          	mv	a2,a0
 100407c:	fff78793          	addi	a5,a5,-1
 1004080:	00068813          	mv	a6,a3
 1004084:	00070513          	mv	a0,a4
 1004088:	fe0792e3          	bnez	a5,100406c <main+0x878>
 100408c:	01812783          	lw	a5,24(sp)
 1004090:	010076b7          	lui	a3,0x1007
 1004094:	4986a503          	lw	a0,1176(a3) # 1007498 <halF+0x30>
 1004098:	00c7aa23          	sw	a2,20(a5)
 100409c:	01812603          	lw	a2,24(sp)
 10040a0:	00b7a823          	sw	a1,16(a5)
 10040a4:	49c6a583          	lw	a1,1180(a3)
 10040a8:	00e62623          	sw	a4,12(a2)
 10040ac:	00e62e23          	sw	a4,28(a2)
 10040b0:	00200693          	li	a3,2
 10040b4:	01007737          	lui	a4,0x1007
 10040b8:	01062423          	sw	a6,8(a2)
 10040bc:	01062c23          	sw	a6,24(a2)
 10040c0:	01008637          	lui	a2,0x1008
 10040c4:	4a872403          	lw	s0,1192(a4) # 10074a8 <halF+0x40>
 10040c8:	4ac72483          	lw	s1,1196(a4)
 10040cc:	c8d62c23          	sw	a3,-872(a2) # 1007c98 <J>
 10040d0:	00300713          	li	a4,3
 10040d4:	010086b7          	lui	a3,0x1008
 10040d8:	c8e6aa23          	sw	a4,-876(a3) # 1007c94 <K>
 10040dc:	3a200913          	li	s2,930
 10040e0:	218000ef          	jal	10042f8 <log>
 10040e4:	00040613          	mv	a2,s0
 10040e8:	00048693          	mv	a3,s1
 10040ec:	dc0fd0ef          	jal	10016ac <__divdf3>
 10040f0:	13c000ef          	jal	100422c <exp>
 10040f4:	fff90913          	addi	s2,s2,-1
 10040f8:	2e0000ef          	jal	10043d8 <sqrt>
 10040fc:	fe0912e3          	bnez	s2,10040e0 <main+0x8ec>
 1004100:	00000513          	li	a0,0
 1004104:	e51fc0ef          	jal	1000f54 <time>
 1004108:	01c12783          	lw	a5,28(sp)
 100410c:	40f50433          	sub	s0,a0,a5
 1004110:	010077b7          	lui	a5,0x1007
 1004114:	3d878513          	addi	a0,a5,984 # 10073d8 <__clz_tab+0x174>
 1004118:	f34fc0ef          	jal	100084c <printf>
 100411c:	00b727b7          	lui	a5,0xb72
 1004120:	aff78793          	addi	a5,a5,-1281 # b71aff <__heap_size+0xb70aff>
 1004124:	0a87de63          	bge	a5,s0,10041e0 <main+0x9ec>
 1004128:	00b725b7          	lui	a1,0xb72
 100412c:	00040513          	mv	a0,s0
 1004130:	b0058593          	addi	a1,a1,-1280 # b71b00 <__heap_size+0xb70b00>
 1004134:	ce4ff0ef          	jal	1003618 <__divsi3>
 1004138:	00050413          	mv	s0,a0
 100413c:	01007537          	lui	a0,0x1007
 1004140:	00400593          	li	a1,4
 1004144:	39850513          	addi	a0,a0,920 # 1007398 <__clz_tab+0x134>
 1004148:	f04fc0ef          	jal	100084c <printf>
 100414c:	01007537          	lui	a0,0x1007
 1004150:	00040693          	mv	a3,s0
 1004154:	00100613          	li	a2,1
 1004158:	00a00593          	li	a1,10
 100415c:	3ac50513          	addi	a0,a0,940 # 10073ac <__clz_tab+0x148>
 1004160:	eecfc0ef          	jal	100084c <printf>
 1004164:	00040513          	mv	a0,s0
 1004168:	aa8ff0ef          	jal	1003410 <__floatsisf>
 100416c:	01007937          	lui	s2,0x1007
 1004170:	00050593          	mv	a1,a0
 1004174:	5b092503          	lw	a0,1456(s2) # 10075b0 <halF+0x148>
 1004178:	e8dfe0ef          	jal	1003004 <__divsf3>
 100417c:	00050993          	mv	s3,a0
 1004180:	b9cff0ef          	jal	100351c <__extendsfdf2>
 1004184:	00058493          	mv	s1,a1
 1004188:	5b092583          	lw	a1,1456(s2)
 100418c:	00050413          	mv	s0,a0
 1004190:	00098513          	mv	a0,s3
 1004194:	9e4ff0ef          	jal	1003378 <__gesf2>
 1004198:	02054863          	bltz	a0,10041c8 <main+0x9d4>
 100419c:	01012603          	lw	a2,16(sp)
 10041a0:	01412683          	lw	a3,20(sp)
 10041a4:	00040513          	mv	a0,s0
 10041a8:	00048593          	mv	a1,s1
 10041ac:	d00fd0ef          	jal	10016ac <__divdf3>
 10041b0:	00050613          	mv	a2,a0
 10041b4:	01007537          	lui	a0,0x1007
 10041b8:	00058693          	mv	a3,a1
 10041bc:	3dc50513          	addi	a0,a0,988 # 10073dc <__clz_tab+0x178>
 10041c0:	e8cfc0ef          	jal	100084c <printf>
 10041c4:	ebcff06f          	j	1003880 <main+0x8c>
 10041c8:	01007537          	lui	a0,0x1007
 10041cc:	00040613          	mv	a2,s0
 10041d0:	00048693          	mv	a3,s1
 10041d4:	41050513          	addi	a0,a0,1040 # 1007410 <__clz_tab+0x1ac>
 10041d8:	e74fc0ef          	jal	100084c <printf>
 10041dc:	ea4ff06f          	j	1003880 <main+0x8c>
 10041e0:	01007537          	lui	a0,0x1007
 10041e4:	36850513          	addi	a0,a0,872 # 1007368 <__clz_tab+0x104>
 10041e8:	e64fc0ef          	jal	100084c <printf>
 10041ec:	06c12083          	lw	ra,108(sp)
 10041f0:	06812403          	lw	s0,104(sp)
 10041f4:	06412483          	lw	s1,100(sp)
 10041f8:	06012903          	lw	s2,96(sp)
 10041fc:	05c12983          	lw	s3,92(sp)
 1004200:	05812a03          	lw	s4,88(sp)
 1004204:	05412a83          	lw	s5,84(sp)
 1004208:	05012b03          	lw	s6,80(sp)
 100420c:	04c12b83          	lw	s7,76(sp)
 1004210:	04812c03          	lw	s8,72(sp)
 1004214:	04412c83          	lw	s9,68(sp)
 1004218:	04012d03          	lw	s10,64(sp)
 100421c:	03c12d83          	lw	s11,60(sp)
 1004220:	00100513          	li	a0,1
 1004224:	07010113          	addi	sp,sp,112
 1004228:	00008067          	ret

0100422c <exp>:
 100422c:	fe010113          	addi	sp,sp,-32
 1004230:	00812c23          	sw	s0,24(sp)
 1004234:	00912a23          	sw	s1,20(sp)
 1004238:	01212823          	sw	s2,16(sp)
 100423c:	01312623          	sw	s3,12(sp)
 1004240:	00112e23          	sw	ra,28(sp)
 1004244:	00050913          	mv	s2,a0
 1004248:	00058993          	mv	s3,a1
 100424c:	5d8000ef          	jal	1004824 <__ieee754_exp>
 1004250:	00050493          	mv	s1,a0
 1004254:	00058413          	mv	s0,a1
 1004258:	00090513          	mv	a0,s2
 100425c:	00098593          	mv	a1,s3
 1004260:	5ac000ef          	jal	100480c <finite>
 1004264:	02050e63          	beqz	a0,10042a0 <exp+0x74>
 1004268:	010077b7          	lui	a5,0x1007
 100426c:	4d07a603          	lw	a2,1232(a5) # 10074d0 <halF+0x68>
 1004270:	4d47a683          	lw	a3,1236(a5)
 1004274:	00090513          	mv	a0,s2
 1004278:	00098593          	mv	a1,s3
 100427c:	c79fd0ef          	jal	1001ef4 <__gedf2>
 1004280:	04a04263          	bgtz	a0,10042c4 <exp+0x98>
 1004284:	010077b7          	lui	a5,0x1007
 1004288:	4d87a603          	lw	a2,1240(a5) # 10074d8 <halF+0x70>
 100428c:	4dc7a683          	lw	a3,1244(a5)
 1004290:	00090513          	mv	a0,s2
 1004294:	00098593          	mv	a1,s3
 1004298:	d35fd0ef          	jal	1001fcc <__ledf2>
 100429c:	04054263          	bltz	a0,10042e0 <exp+0xb4>
 10042a0:	01c12083          	lw	ra,28(sp)
 10042a4:	00040593          	mv	a1,s0
 10042a8:	01812403          	lw	s0,24(sp)
 10042ac:	01012903          	lw	s2,16(sp)
 10042b0:	00c12983          	lw	s3,12(sp)
 10042b4:	00048513          	mv	a0,s1
 10042b8:	01412483          	lw	s1,20(sp)
 10042bc:	02010113          	addi	sp,sp,32
 10042c0:	00008067          	ret
 10042c4:	4c4010ef          	jal	1005788 <__errno>
 10042c8:	010077b7          	lui	a5,0x1007
 10042cc:	02200713          	li	a4,34
 10042d0:	4c87a483          	lw	s1,1224(a5) # 10074c8 <halF+0x60>
 10042d4:	4cc7a403          	lw	s0,1228(a5)
 10042d8:	00e52023          	sw	a4,0(a0)
 10042dc:	fc5ff06f          	j	10042a0 <exp+0x74>
 10042e0:	4a8010ef          	jal	1005788 <__errno>
 10042e4:	02200793          	li	a5,34
 10042e8:	00f52023          	sw	a5,0(a0)
 10042ec:	00000493          	li	s1,0
 10042f0:	00000413          	li	s0,0
 10042f4:	fadff06f          	j	10042a0 <exp+0x74>

010042f8 <log>:
 10042f8:	fe010113          	addi	sp,sp,-32
 10042fc:	00812c23          	sw	s0,24(sp)
 1004300:	00912a23          	sw	s1,20(sp)
 1004304:	01212823          	sw	s2,16(sp)
 1004308:	01312623          	sw	s3,12(sp)
 100430c:	00050413          	mv	s0,a0
 1004310:	00058493          	mv	s1,a1
 1004314:	00112e23          	sw	ra,28(sp)
 1004318:	2d1000ef          	jal	1004de8 <__ieee754_log>
 100431c:	00050993          	mv	s3,a0
 1004320:	00058913          	mv	s2,a1
 1004324:	00040613          	mv	a2,s0
 1004328:	00048693          	mv	a3,s1
 100432c:	00040513          	mv	a0,s0
 1004330:	00048593          	mv	a1,s1
 1004334:	b6dfe0ef          	jal	1002ea0 <__unorddf2>
 1004338:	04051663          	bnez	a0,1004384 <log+0x8c>
 100433c:	00000613          	li	a2,0
 1004340:	00000693          	li	a3,0
 1004344:	00040513          	mv	a0,s0
 1004348:	00048593          	mv	a1,s1
 100434c:	ba9fd0ef          	jal	1001ef4 <__gedf2>
 1004350:	02a04a63          	bgtz	a0,1004384 <log+0x8c>
 1004354:	00040513          	mv	a0,s0
 1004358:	00048593          	mv	a1,s1
 100435c:	00000613          	li	a2,0
 1004360:	00000693          	li	a3,0
 1004364:	b0dfd0ef          	jal	1001e70 <__eqdf2>
 1004368:	04051063          	bnez	a0,10043a8 <log+0xb0>
 100436c:	41c010ef          	jal	1005788 <__errno>
 1004370:	010077b7          	lui	a5,0x1007
 1004374:	4e07a983          	lw	s3,1248(a5) # 10074e0 <halF+0x78>
 1004378:	4e47a903          	lw	s2,1252(a5)
 100437c:	02200713          	li	a4,34
 1004380:	00e52023          	sw	a4,0(a0)
 1004384:	01c12083          	lw	ra,28(sp)
 1004388:	01812403          	lw	s0,24(sp)
 100438c:	01412483          	lw	s1,20(sp)
 1004390:	00098513          	mv	a0,s3
 1004394:	00090593          	mv	a1,s2
 1004398:	00c12983          	lw	s3,12(sp)
 100439c:	01012903          	lw	s2,16(sp)
 10043a0:	02010113          	addi	sp,sp,32
 10043a4:	00008067          	ret
 10043a8:	3e0010ef          	jal	1005788 <__errno>
 10043ac:	01812403          	lw	s0,24(sp)
 10043b0:	01c12083          	lw	ra,28(sp)
 10043b4:	01412483          	lw	s1,20(sp)
 10043b8:	01012903          	lw	s2,16(sp)
 10043bc:	00c12983          	lw	s3,12(sp)
 10043c0:	02100713          	li	a4,33
 10043c4:	00e52023          	sw	a4,0(a0)
 10043c8:	010077b7          	lui	a5,0x1007
 10043cc:	36478513          	addi	a0,a5,868 # 1007364 <__clz_tab+0x100>
 10043d0:	02010113          	addi	sp,sp,32
 10043d4:	0b00006f          	j	1004484 <nan>

010043d8 <sqrt>:
 10043d8:	fe010113          	addi	sp,sp,-32
 10043dc:	00812c23          	sw	s0,24(sp)
 10043e0:	00912a23          	sw	s1,20(sp)
 10043e4:	01212823          	sw	s2,16(sp)
 10043e8:	01312623          	sw	s3,12(sp)
 10043ec:	00050913          	mv	s2,a0
 10043f0:	00058993          	mv	s3,a1
 10043f4:	00112e23          	sw	ra,28(sp)
 10043f8:	09c000ef          	jal	1004494 <__ieee754_sqrt>
 10043fc:	00050493          	mv	s1,a0
 1004400:	00058413          	mv	s0,a1
 1004404:	00090613          	mv	a2,s2
 1004408:	00098693          	mv	a3,s3
 100440c:	00090513          	mv	a0,s2
 1004410:	00098593          	mv	a1,s3
 1004414:	a8dfe0ef          	jal	1002ea0 <__unorddf2>
 1004418:	00051e63          	bnez	a0,1004434 <sqrt+0x5c>
 100441c:	00090513          	mv	a0,s2
 1004420:	00098593          	mv	a1,s3
 1004424:	00000613          	li	a2,0
 1004428:	00000693          	li	a3,0
 100442c:	ba1fd0ef          	jal	1001fcc <__ledf2>
 1004430:	02054463          	bltz	a0,1004458 <sqrt+0x80>
 1004434:	01c12083          	lw	ra,28(sp)
 1004438:	00040593          	mv	a1,s0
 100443c:	01812403          	lw	s0,24(sp)
 1004440:	01012903          	lw	s2,16(sp)
 1004444:	00c12983          	lw	s3,12(sp)
 1004448:	00048513          	mv	a0,s1
 100444c:	01412483          	lw	s1,20(sp)
 1004450:	02010113          	addi	sp,sp,32
 1004454:	00008067          	ret
 1004458:	330010ef          	jal	1005788 <__errno>
 100445c:	00000613          	li	a2,0
 1004460:	00000693          	li	a3,0
 1004464:	02100793          	li	a5,33
 1004468:	00f52023          	sw	a5,0(a0)
 100446c:	00068593          	mv	a1,a3
 1004470:	00060513          	mv	a0,a2
 1004474:	a38fd0ef          	jal	10016ac <__divdf3>
 1004478:	00050493          	mv	s1,a0
 100447c:	00058413          	mv	s0,a1
 1004480:	fb5ff06f          	j	1004434 <sqrt+0x5c>

01004484 <nan>:
 1004484:	010077b7          	lui	a5,0x1007
 1004488:	4e87a503          	lw	a0,1256(a5) # 10074e8 <halF+0x80>
 100448c:	4ec7a583          	lw	a1,1260(a5)
 1004490:	00008067          	ret

01004494 <__ieee754_sqrt>:
 1004494:	fe010113          	addi	sp,sp,-32
 1004498:	7ff00737          	lui	a4,0x7ff00
 100449c:	00112e23          	sw	ra,28(sp)
 10044a0:	00b776b3          	and	a3,a4,a1
 10044a4:	00058813          	mv	a6,a1
 10044a8:	00050793          	mv	a5,a0
 10044ac:	2ee68263          	beq	a3,a4,1004790 <__ieee754_sqrt+0x2fc>
 10044b0:	00058693          	mv	a3,a1
 10044b4:	00050713          	mv	a4,a0
 10044b8:	10b05a63          	blez	a1,10045cc <__ieee754_sqrt+0x138>
 10044bc:	4145d813          	srai	a6,a1,0x14
 10044c0:	14080063          	beqz	a6,1004600 <__ieee754_sqrt+0x16c>
 10044c4:	001007b7          	lui	a5,0x100
 10044c8:	fff78613          	addi	a2,a5,-1 # fffff <__heap_size+0xfefff>
 10044cc:	c0180813          	addi	a6,a6,-1023
 10044d0:	00c6f6b3          	and	a3,a3,a2
 10044d4:	00187613          	andi	a2,a6,1
 10044d8:	00f6e6b3          	or	a3,a3,a5
 10044dc:	00060a63          	beqz	a2,10044f0 <__ieee754_sqrt+0x5c>
 10044e0:	01f75793          	srli	a5,a4,0x1f
 10044e4:	00169693          	slli	a3,a3,0x1
 10044e8:	00d786b3          	add	a3,a5,a3
 10044ec:	00171713          	slli	a4,a4,0x1
 10044f0:	00169693          	slli	a3,a3,0x1
 10044f4:	01f75793          	srli	a5,a4,0x1f
 10044f8:	00d787b3          	add	a5,a5,a3
 10044fc:	40185313          	srai	t1,a6,0x1
 1004500:	00171713          	slli	a4,a4,0x1
 1004504:	01600593          	li	a1,22
 1004508:	00000e13          	li	t3,0
 100450c:	00000693          	li	a3,0
 1004510:	00200637          	lui	a2,0x200
 1004514:	00c68533          	add	a0,a3,a2
 1004518:	01f75813          	srli	a6,a4,0x1f
 100451c:	fff58593          	addi	a1,a1,-1
 1004520:	00a7c863          	blt	a5,a0,1004530 <__ieee754_sqrt+0x9c>
 1004524:	40a787b3          	sub	a5,a5,a0
 1004528:	00c506b3          	add	a3,a0,a2
 100452c:	00ce0e33          	add	t3,t3,a2
 1004530:	00179793          	slli	a5,a5,0x1
 1004534:	010787b3          	add	a5,a5,a6
 1004538:	00171713          	slli	a4,a4,0x1
 100453c:	00165613          	srli	a2,a2,0x1
 1004540:	fc059ae3          	bnez	a1,1004514 <__ieee754_sqrt+0x80>
 1004544:	00000e93          	li	t4,0
 1004548:	00000893          	li	a7,0
 100454c:	02000813          	li	a6,32
 1004550:	80000637          	lui	a2,0x80000
 1004554:	0480006f          	j	100459c <__ieee754_sqrt+0x108>
 1004558:	0cd79e63          	bne	a5,a3,1004634 <__ieee754_sqrt+0x1a0>
 100455c:	0cb76c63          	bltu	a4,a1,1004634 <__ieee754_sqrt+0x1a0>
 1004560:	00c588b3          	add	a7,a1,a2
 1004564:	00000793          	li	a5,0
 1004568:	0005d863          	bgez	a1,1004578 <__ieee754_sqrt+0xe4>
 100456c:	fff8c513          	not	a0,a7
 1004570:	01f55513          	srli	a0,a0,0x1f
 1004574:	00a686b3          	add	a3,a3,a0
 1004578:	40b70733          	sub	a4,a4,a1
 100457c:	01f75593          	srli	a1,a4,0x1f
 1004580:	00f585b3          	add	a1,a1,a5
 1004584:	fff80813          	addi	a6,a6,-1
 1004588:	00ce8eb3          	add	t4,t4,a2
 100458c:	00171713          	slli	a4,a4,0x1
 1004590:	00165613          	srli	a2,a2,0x1
 1004594:	00058793          	mv	a5,a1
 1004598:	0a080e63          	beqz	a6,1004654 <__ieee754_sqrt+0x1c0>
 100459c:	011605b3          	add	a1,a2,a7
 10045a0:	faf6dce3          	bge	a3,a5,1004558 <__ieee754_sqrt+0xc4>
 10045a4:	00c588b3          	add	a7,a1,a2
 10045a8:	fff8c513          	not	a0,a7
 10045ac:	00b57533          	and	a0,a0,a1
 10045b0:	01f55513          	srli	a0,a0,0x1f
 10045b4:	40d787b3          	sub	a5,a5,a3
 10045b8:	00d506b3          	add	a3,a0,a3
 10045bc:	00b77463          	bgeu	a4,a1,10045c4 <__ieee754_sqrt+0x130>
 10045c0:	fff78793          	addi	a5,a5,-1
 10045c4:	00179793          	slli	a5,a5,0x1
 10045c8:	fb1ff06f          	j	1004578 <__ieee754_sqrt+0xe4>
 10045cc:	00159893          	slli	a7,a1,0x1
 10045d0:	0018d893          	srli	a7,a7,0x1
 10045d4:	00a8e8b3          	or	a7,a7,a0
 10045d8:	0a088263          	beqz	a7,100467c <__ieee754_sqrt+0x1e8>
 10045dc:	1e059863          	bnez	a1,10047cc <__ieee754_sqrt+0x338>
 10045e0:	00b75793          	srli	a5,a4,0xb
 10045e4:	feb68693          	addi	a3,a3,-21
 10045e8:	01571713          	slli	a4,a4,0x15
 10045ec:	fe078ae3          	beqz	a5,10045e0 <__ieee754_sqrt+0x14c>
 10045f0:	0147d613          	srli	a2,a5,0x14
 10045f4:	00068813          	mv	a6,a3
 10045f8:	20061263          	bnez	a2,10047fc <__ieee754_sqrt+0x368>
 10045fc:	00078693          	mv	a3,a5
 1004600:	00000793          	li	a5,0
 1004604:	00169693          	slli	a3,a3,0x1
 1004608:	00b69593          	slli	a1,a3,0xb
 100460c:	00078613          	mv	a2,a5
 1004610:	00178793          	addi	a5,a5,1
 1004614:	fe05d8e3          	bgez	a1,1004604 <__ieee754_sqrt+0x170>
 1004618:	02000593          	li	a1,32
 100461c:	40f585b3          	sub	a1,a1,a5
 1004620:	00b755b3          	srl	a1,a4,a1
 1004624:	00b6e6b3          	or	a3,a3,a1
 1004628:	00f71733          	sll	a4,a4,a5
 100462c:	40c80833          	sub	a6,a6,a2
 1004630:	e95ff06f          	j	10044c4 <__ieee754_sqrt+0x30>
 1004634:	00179793          	slli	a5,a5,0x1
 1004638:	01f75593          	srli	a1,a4,0x1f
 100463c:	00f585b3          	add	a1,a1,a5
 1004640:	fff80813          	addi	a6,a6,-1
 1004644:	00165613          	srli	a2,a2,0x1
 1004648:	00171713          	slli	a4,a4,0x1
 100464c:	00058793          	mv	a5,a1
 1004650:	f40816e3          	bnez	a6,100459c <__ieee754_sqrt+0x108>
 1004654:	00e5e5b3          	or	a1,a1,a4
 1004658:	02059c63          	bnez	a1,1004690 <__ieee754_sqrt+0x1fc>
 100465c:	001ed813          	srli	a6,t4,0x1
 1004660:	401e5713          	srai	a4,t3,0x1
 1004664:	3fe006b7          	lui	a3,0x3fe00
 1004668:	01431313          	slli	t1,t1,0x14
 100466c:	01fe1793          	slli	a5,t3,0x1f
 1004670:	00d70733          	add	a4,a4,a3
 1004674:	0107e7b3          	or	a5,a5,a6
 1004678:	00e30833          	add	a6,t1,a4
 100467c:	01c12083          	lw	ra,28(sp)
 1004680:	00078513          	mv	a0,a5
 1004684:	00080593          	mv	a1,a6
 1004688:	02010113          	addi	sp,sp,32
 100468c:	00008067          	ret
 1004690:	010077b7          	lui	a5,0x1007
 1004694:	01007737          	lui	a4,0x1007
 1004698:	5c07a503          	lw	a0,1472(a5) # 10075c0 <one>
 100469c:	01012623          	sw	a6,12(sp)
 10046a0:	5c47a583          	lw	a1,1476(a5)
 10046a4:	5b872603          	lw	a2,1464(a4) # 10075b8 <tiny>
 10046a8:	5bc72683          	lw	a3,1468(a4)
 10046ac:	5c07a803          	lw	a6,1472(a5)
 10046b0:	5c47a883          	lw	a7,1476(a5)
 10046b4:	01c12423          	sw	t3,8(sp)
 10046b8:	00612223          	sw	t1,4(sp)
 10046bc:	01d12023          	sw	t4,0(sp)
 10046c0:	00812c23          	sw	s0,24(sp)
 10046c4:	00912a23          	sw	s1,20(sp)
 10046c8:	00080413          	mv	s0,a6
 10046cc:	00088493          	mv	s1,a7
 10046d0:	870fe0ef          	jal	1002740 <__subdf3>
 10046d4:	00050613          	mv	a2,a0
 10046d8:	00058693          	mv	a3,a1
 10046dc:	00040513          	mv	a0,s0
 10046e0:	00048593          	mv	a1,s1
 10046e4:	8e9fd0ef          	jal	1001fcc <__ledf2>
 10046e8:	00012e83          	lw	t4,0(sp)
 10046ec:	00412303          	lw	t1,4(sp)
 10046f0:	00812e03          	lw	t3,8(sp)
 10046f4:	00c12803          	lw	a6,12(sp)
 10046f8:	010077b7          	lui	a5,0x1007
 10046fc:	01007737          	lui	a4,0x1007
 1004700:	08a04063          	bgtz	a0,1004780 <__ieee754_sqrt+0x2ec>
 1004704:	5c07a503          	lw	a0,1472(a5) # 10075c0 <one>
 1004708:	5c47a583          	lw	a1,1476(a5)
 100470c:	5b872603          	lw	a2,1464(a4) # 10075b8 <tiny>
 1004710:	5bc72683          	lw	a3,1468(a4)
 1004714:	fff00713          	li	a4,-1
 1004718:	0cee8a63          	beq	t4,a4,10047ec <__ieee754_sqrt+0x358>
 100471c:	5c47a803          	lw	a6,1476(a5)
 1004720:	5c07a783          	lw	a5,1472(a5)
 1004724:	01c12423          	sw	t3,8(sp)
 1004728:	00612223          	sw	t1,4(sp)
 100472c:	01d12023          	sw	t4,0(sp)
 1004730:	00078413          	mv	s0,a5
 1004734:	00080493          	mv	s1,a6
 1004738:	829fc0ef          	jal	1000f60 <__adddf3>
 100473c:	00050613          	mv	a2,a0
 1004740:	00058693          	mv	a3,a1
 1004744:	00040513          	mv	a0,s0
 1004748:	00048593          	mv	a1,s1
 100474c:	881fd0ef          	jal	1001fcc <__ledf2>
 1004750:	00012e83          	lw	t4,0(sp)
 1004754:	00412303          	lw	t1,4(sp)
 1004758:	00812e03          	lw	t3,8(sp)
 100475c:	02055063          	bgez	a0,100477c <__ieee754_sqrt+0x2e8>
 1004760:	002e8e93          	addi	t4,t4,2
 1004764:	001eb793          	seqz	a5,t4
 1004768:	01812403          	lw	s0,24(sp)
 100476c:	01412483          	lw	s1,20(sp)
 1004770:	00fe0e33          	add	t3,t3,a5
 1004774:	001ed813          	srli	a6,t4,0x1
 1004778:	ee9ff06f          	j	1004660 <__ieee754_sqrt+0x1cc>
 100477c:	001e8e93          	addi	t4,t4,1
 1004780:	01812403          	lw	s0,24(sp)
 1004784:	01412483          	lw	s1,20(sp)
 1004788:	001ed813          	srli	a6,t4,0x1
 100478c:	ed5ff06f          	j	1004660 <__ieee754_sqrt+0x1cc>
 1004790:	00050613          	mv	a2,a0
 1004794:	00058693          	mv	a3,a1
 1004798:	00a12223          	sw	a0,4(sp)
 100479c:	00b12023          	sw	a1,0(sp)
 10047a0:	905fd0ef          	jal	10020a4 <__muldf3>
 10047a4:	00412603          	lw	a2,4(sp)
 10047a8:	00012683          	lw	a3,0(sp)
 10047ac:	fb4fc0ef          	jal	1000f60 <__adddf3>
 10047b0:	01c12083          	lw	ra,28(sp)
 10047b4:	00050793          	mv	a5,a0
 10047b8:	00058813          	mv	a6,a1
 10047bc:	00078513          	mv	a0,a5
 10047c0:	00080593          	mv	a1,a6
 10047c4:	02010113          	addi	sp,sp,32
 10047c8:	00008067          	ret
 10047cc:	00050613          	mv	a2,a0
 10047d0:	f71fd0ef          	jal	1002740 <__subdf3>
 10047d4:	00050613          	mv	a2,a0
 10047d8:	00058693          	mv	a3,a1
 10047dc:	ed1fc0ef          	jal	10016ac <__divdf3>
 10047e0:	00050793          	mv	a5,a0
 10047e4:	00058813          	mv	a6,a1
 10047e8:	e95ff06f          	j	100467c <__ieee754_sqrt+0x1e8>
 10047ec:	01812403          	lw	s0,24(sp)
 10047f0:	01412483          	lw	s1,20(sp)
 10047f4:	001e0e13          	addi	t3,t3,1
 10047f8:	e69ff06f          	j	1004660 <__ieee754_sqrt+0x1cc>
 10047fc:	fff00613          	li	a2,-1
 1004800:	00078693          	mv	a3,a5
 1004804:	40c80833          	sub	a6,a6,a2
 1004808:	cbdff06f          	j	10044c4 <__ieee754_sqrt+0x30>

0100480c <finite>:
 100480c:	800007b7          	lui	a5,0x80000
 1004810:	00f5e533          	or	a0,a1,a5
 1004814:	fff007b7          	lui	a5,0xfff00
 1004818:	40f50533          	sub	a0,a0,a5
 100481c:	01f55513          	srli	a0,a0,0x1f
 1004820:	00008067          	ret

01004824 <__ieee754_exp>:
 1004824:	fc010113          	addi	sp,sp,-64
 1004828:	00159793          	slli	a5,a1,0x1
 100482c:	40863737          	lui	a4,0x40863
 1004830:	02812c23          	sw	s0,56(sp)
 1004834:	02912a23          	sw	s1,52(sp)
 1004838:	02112e23          	sw	ra,60(sp)
 100483c:	03412423          	sw	s4,40(sp)
 1004840:	0017d793          	srli	a5,a5,0x1
 1004844:	e4170713          	addi	a4,a4,-447 # 40862e41 <__stack_end+0x3f842e41>
 1004848:	00058413          	mv	s0,a1
 100484c:	01f5d813          	srli	a6,a1,0x1f
 1004850:	00050493          	mv	s1,a0
 1004854:	02f77a63          	bgeu	a4,a5,1004888 <__ieee754_exp+0x64>
 1004858:	7ff00737          	lui	a4,0x7ff00
 100485c:	18e7ee63          	bltu	a5,a4,10049f8 <__ieee754_exp+0x1d4>
 1004860:	00c59693          	slli	a3,a1,0xc
 1004864:	00c6d693          	srli	a3,a3,0xc
 1004868:	00a6e6b3          	or	a3,a3,a0
 100486c:	4c069063          	bnez	a3,1004d2c <__ieee754_exp+0x508>
 1004870:	00000793          	li	a5,0
 1004874:	00000593          	li	a1,0
 1004878:	3e081863          	bnez	a6,1004c68 <__ieee754_exp+0x444>
 100487c:	00050793          	mv	a5,a0
 1004880:	00040593          	mv	a1,s0
 1004884:	3e40006f          	j	1004c68 <__ieee754_exp+0x444>
 1004888:	3fd63737          	lui	a4,0x3fd63
 100488c:	e4270713          	addi	a4,a4,-446 # 3fd62e42 <__stack_end+0x3ed42e42>
 1004890:	3ef76a63          	bltu	a4,a5,1004c84 <__ieee754_exp+0x460>
 1004894:	3df00737          	lui	a4,0x3df00
 1004898:	46e7e263          	bltu	a5,a4,1004cfc <__ieee754_exp+0x4d8>
 100489c:	03212823          	sw	s2,48(sp)
 10048a0:	03312623          	sw	s3,44(sp)
 10048a4:	01007a37          	lui	s4,0x1007
 10048a8:	00048613          	mv	a2,s1
 10048ac:	00040693          	mv	a3,s0
 10048b0:	00048513          	mv	a0,s1
 10048b4:	00040593          	mv	a1,s0
 10048b8:	fecfd0ef          	jal	10020a4 <__muldf3>
 10048bc:	010077b7          	lui	a5,0x1007
 10048c0:	5087a603          	lw	a2,1288(a5) # 1007508 <halF+0xa0>
 10048c4:	50c7a683          	lw	a3,1292(a5)
 10048c8:	00050913          	mv	s2,a0
 10048cc:	00058993          	mv	s3,a1
 10048d0:	fd4fd0ef          	jal	10020a4 <__muldf3>
 10048d4:	010077b7          	lui	a5,0x1007
 10048d8:	5107a603          	lw	a2,1296(a5) # 1007510 <halF+0xa8>
 10048dc:	5147a683          	lw	a3,1300(a5)
 10048e0:	e61fd0ef          	jal	1002740 <__subdf3>
 10048e4:	00090613          	mv	a2,s2
 10048e8:	00098693          	mv	a3,s3
 10048ec:	fb8fd0ef          	jal	10020a4 <__muldf3>
 10048f0:	010077b7          	lui	a5,0x1007
 10048f4:	5187a603          	lw	a2,1304(a5) # 1007518 <halF+0xb0>
 10048f8:	51c7a683          	lw	a3,1308(a5)
 10048fc:	e64fc0ef          	jal	1000f60 <__adddf3>
 1004900:	00090613          	mv	a2,s2
 1004904:	00098693          	mv	a3,s3
 1004908:	f9cfd0ef          	jal	10020a4 <__muldf3>
 100490c:	010077b7          	lui	a5,0x1007
 1004910:	5207a603          	lw	a2,1312(a5) # 1007520 <halF+0xb8>
 1004914:	5247a683          	lw	a3,1316(a5)
 1004918:	e29fd0ef          	jal	1002740 <__subdf3>
 100491c:	00090613          	mv	a2,s2
 1004920:	00098693          	mv	a3,s3
 1004924:	f80fd0ef          	jal	10020a4 <__muldf3>
 1004928:	010077b7          	lui	a5,0x1007
 100492c:	5287a603          	lw	a2,1320(a5) # 1007528 <halF+0xc0>
 1004930:	52c7a683          	lw	a3,1324(a5)
 1004934:	e2cfc0ef          	jal	1000f60 <__adddf3>
 1004938:	00090613          	mv	a2,s2
 100493c:	00098693          	mv	a3,s3
 1004940:	f64fd0ef          	jal	10020a4 <__muldf3>
 1004944:	00050613          	mv	a2,a0
 1004948:	00058693          	mv	a3,a1
 100494c:	00048513          	mv	a0,s1
 1004950:	00040593          	mv	a1,s0
 1004954:	dedfd0ef          	jal	1002740 <__subdf3>
 1004958:	00050713          	mv	a4,a0
 100495c:	00058793          	mv	a5,a1
 1004960:	00070613          	mv	a2,a4
 1004964:	00078693          	mv	a3,a5
 1004968:	00048513          	mv	a0,s1
 100496c:	00040593          	mv	a1,s0
 1004970:	00e12623          	sw	a4,12(sp)
 1004974:	00f12423          	sw	a5,8(sp)
 1004978:	f2cfd0ef          	jal	10020a4 <__muldf3>
 100497c:	010077b7          	lui	a5,0x1007
 1004980:	4907a603          	lw	a2,1168(a5) # 1007490 <halF+0x28>
 1004984:	4947a683          	lw	a3,1172(a5)
 1004988:	00050913          	mv	s2,a0
 100498c:	00058993          	mv	s3,a1
 1004990:	00c12503          	lw	a0,12(sp)
 1004994:	00812583          	lw	a1,8(sp)
 1004998:	da9fd0ef          	jal	1002740 <__subdf3>
 100499c:	00050613          	mv	a2,a0
 10049a0:	00058693          	mv	a3,a1
 10049a4:	00090513          	mv	a0,s2
 10049a8:	00098593          	mv	a1,s3
 10049ac:	d01fc0ef          	jal	10016ac <__divdf3>
 10049b0:	00048613          	mv	a2,s1
 10049b4:	00040693          	mv	a3,s0
 10049b8:	d89fd0ef          	jal	1002740 <__subdf3>
 10049bc:	00050613          	mv	a2,a0
 10049c0:	00058693          	mv	a3,a1
 10049c4:	480a2503          	lw	a0,1152(s4) # 1007480 <halF+0x18>
 10049c8:	484a2583          	lw	a1,1156(s4)
 10049cc:	d75fd0ef          	jal	1002740 <__subdf3>
 10049d0:	03c12083          	lw	ra,60(sp)
 10049d4:	03812403          	lw	s0,56(sp)
 10049d8:	00050793          	mv	a5,a0
 10049dc:	03012903          	lw	s2,48(sp)
 10049e0:	02c12983          	lw	s3,44(sp)
 10049e4:	03412483          	lw	s1,52(sp)
 10049e8:	02812a03          	lw	s4,40(sp)
 10049ec:	00078513          	mv	a0,a5
 10049f0:	04010113          	addi	sp,sp,64
 10049f4:	00008067          	ret
 10049f8:	010077b7          	lui	a5,0x1007
 10049fc:	4d07a603          	lw	a2,1232(a5) # 10074d0 <halF+0x68>
 1004a00:	4d47a683          	lw	a3,1236(a5)
 1004a04:	01012423          	sw	a6,8(sp)
 1004a08:	cecfd0ef          	jal	1001ef4 <__gedf2>
 1004a0c:	34a04663          	bgtz	a0,1004d58 <__ieee754_exp+0x534>
 1004a10:	010077b7          	lui	a5,0x1007
 1004a14:	4d87a603          	lw	a2,1240(a5) # 10074d8 <halF+0x70>
 1004a18:	4dc7a683          	lw	a3,1244(a5)
 1004a1c:	00048513          	mv	a0,s1
 1004a20:	00040593          	mv	a1,s0
 1004a24:	da8fd0ef          	jal	1001fcc <__ledf2>
 1004a28:	00812803          	lw	a6,8(sp)
 1004a2c:	38054463          	bltz	a0,1004db4 <__ieee754_exp+0x590>
 1004a30:	03212823          	sw	s2,48(sp)
 1004a34:	03312623          	sw	s3,44(sp)
 1004a38:	03512223          	sw	s5,36(sp)
 1004a3c:	03612023          	sw	s6,32(sp)
 1004a40:	01712e23          	sw	s7,28(sp)
 1004a44:	01812c23          	sw	s8,24(sp)
 1004a48:	010077b7          	lui	a5,0x1007
 1004a4c:	4f07a603          	lw	a2,1264(a5) # 10074f0 <halF+0x88>
 1004a50:	4f47a683          	lw	a3,1268(a5)
 1004a54:	010077b7          	lui	a5,0x1007
 1004a58:	00381813          	slli	a6,a6,0x3
 1004a5c:	46878793          	addi	a5,a5,1128 # 1007468 <halF>
 1004a60:	010787b3          	add	a5,a5,a6
 1004a64:	00048513          	mv	a0,s1
 1004a68:	00040593          	mv	a1,s0
 1004a6c:	00f12423          	sw	a5,8(sp)
 1004a70:	e34fd0ef          	jal	10020a4 <__muldf3>
 1004a74:	00812783          	lw	a5,8(sp)
 1004a78:	0007a603          	lw	a2,0(a5)
 1004a7c:	0047a683          	lw	a3,4(a5)
 1004a80:	ce0fc0ef          	jal	1000f60 <__adddf3>
 1004a84:	c64fe0ef          	jal	1002ee8 <__fixdfsi>
 1004a88:	00050a13          	mv	s4,a0
 1004a8c:	cd8fe0ef          	jal	1002f64 <__floatsidf>
 1004a90:	010077b7          	lui	a5,0x1007
 1004a94:	4f87a603          	lw	a2,1272(a5) # 10074f8 <halF+0x90>
 1004a98:	4fc7a683          	lw	a3,1276(a5)
 1004a9c:	00050913          	mv	s2,a0
 1004aa0:	00058993          	mv	s3,a1
 1004aa4:	e00fd0ef          	jal	10020a4 <__muldf3>
 1004aa8:	00050613          	mv	a2,a0
 1004aac:	00058693          	mv	a3,a1
 1004ab0:	00048513          	mv	a0,s1
 1004ab4:	00040593          	mv	a1,s0
 1004ab8:	c89fd0ef          	jal	1002740 <__subdf3>
 1004abc:	010076b7          	lui	a3,0x1007
 1004ac0:	5006a603          	lw	a2,1280(a3) # 1007500 <halF+0x98>
 1004ac4:	5046a683          	lw	a3,1284(a3)
 1004ac8:	00050a93          	mv	s5,a0
 1004acc:	00058b13          	mv	s6,a1
 1004ad0:	00090513          	mv	a0,s2
 1004ad4:	00098593          	mv	a1,s3
 1004ad8:	dccfd0ef          	jal	10020a4 <__muldf3>
 1004adc:	00050b93          	mv	s7,a0
 1004ae0:	00058c13          	mv	s8,a1
 1004ae4:	000b8613          	mv	a2,s7
 1004ae8:	000c0693          	mv	a3,s8
 1004aec:	000a8513          	mv	a0,s5
 1004af0:	000b0593          	mv	a1,s6
 1004af4:	c4dfd0ef          	jal	1002740 <__subdf3>
 1004af8:	00050613          	mv	a2,a0
 1004afc:	00058693          	mv	a3,a1
 1004b00:	00050493          	mv	s1,a0
 1004b04:	00058413          	mv	s0,a1
 1004b08:	d9cfd0ef          	jal	10020a4 <__muldf3>
 1004b0c:	010077b7          	lui	a5,0x1007
 1004b10:	5087a603          	lw	a2,1288(a5) # 1007508 <halF+0xa0>
 1004b14:	50c7a683          	lw	a3,1292(a5)
 1004b18:	00050913          	mv	s2,a0
 1004b1c:	00058993          	mv	s3,a1
 1004b20:	d84fd0ef          	jal	10020a4 <__muldf3>
 1004b24:	010077b7          	lui	a5,0x1007
 1004b28:	5107a603          	lw	a2,1296(a5) # 1007510 <halF+0xa8>
 1004b2c:	5147a683          	lw	a3,1300(a5)
 1004b30:	c11fd0ef          	jal	1002740 <__subdf3>
 1004b34:	00090613          	mv	a2,s2
 1004b38:	00098693          	mv	a3,s3
 1004b3c:	d68fd0ef          	jal	10020a4 <__muldf3>
 1004b40:	010077b7          	lui	a5,0x1007
 1004b44:	5187a603          	lw	a2,1304(a5) # 1007518 <halF+0xb0>
 1004b48:	51c7a683          	lw	a3,1308(a5)
 1004b4c:	c14fc0ef          	jal	1000f60 <__adddf3>
 1004b50:	00090613          	mv	a2,s2
 1004b54:	00098693          	mv	a3,s3
 1004b58:	d4cfd0ef          	jal	10020a4 <__muldf3>
 1004b5c:	010077b7          	lui	a5,0x1007
 1004b60:	5207a603          	lw	a2,1312(a5) # 1007520 <halF+0xb8>
 1004b64:	5247a683          	lw	a3,1316(a5)
 1004b68:	bd9fd0ef          	jal	1002740 <__subdf3>
 1004b6c:	00090613          	mv	a2,s2
 1004b70:	00098693          	mv	a3,s3
 1004b74:	d30fd0ef          	jal	10020a4 <__muldf3>
 1004b78:	010077b7          	lui	a5,0x1007
 1004b7c:	5287a603          	lw	a2,1320(a5) # 1007528 <halF+0xc0>
 1004b80:	52c7a683          	lw	a3,1324(a5)
 1004b84:	bdcfc0ef          	jal	1000f60 <__adddf3>
 1004b88:	00090613          	mv	a2,s2
 1004b8c:	00098693          	mv	a3,s3
 1004b90:	d14fd0ef          	jal	10020a4 <__muldf3>
 1004b94:	00050613          	mv	a2,a0
 1004b98:	00058693          	mv	a3,a1
 1004b9c:	00048513          	mv	a0,s1
 1004ba0:	00040593          	mv	a1,s0
 1004ba4:	b9dfd0ef          	jal	1002740 <__subdf3>
 1004ba8:	00050613          	mv	a2,a0
 1004bac:	00a12623          	sw	a0,12(sp)
 1004bb0:	00058693          	mv	a3,a1
 1004bb4:	00b12423          	sw	a1,8(sp)
 1004bb8:	00048513          	mv	a0,s1
 1004bbc:	00040593          	mv	a1,s0
 1004bc0:	ce4fd0ef          	jal	10020a4 <__muldf3>
 1004bc4:	00812783          	lw	a5,8(sp)
 1004bc8:	00c12703          	lw	a4,12(sp)
 1004bcc:	00050913          	mv	s2,a0
 1004bd0:	00058993          	mv	s3,a1
 1004bd4:	1e0a0e63          	beqz	s4,1004dd0 <__ieee754_exp+0x5ac>
 1004bd8:	00078693          	mv	a3,a5
 1004bdc:	010077b7          	lui	a5,0x1007
 1004be0:	4907a503          	lw	a0,1168(a5) # 1007490 <halF+0x28>
 1004be4:	4947a583          	lw	a1,1172(a5)
 1004be8:	00070613          	mv	a2,a4
 1004bec:	b55fd0ef          	jal	1002740 <__subdf3>
 1004bf0:	00050613          	mv	a2,a0
 1004bf4:	00058693          	mv	a3,a1
 1004bf8:	00090513          	mv	a0,s2
 1004bfc:	00098593          	mv	a1,s3
 1004c00:	aadfc0ef          	jal	10016ac <__divdf3>
 1004c04:	00050613          	mv	a2,a0
 1004c08:	00058693          	mv	a3,a1
 1004c0c:	000b8513          	mv	a0,s7
 1004c10:	000c0593          	mv	a1,s8
 1004c14:	b2dfd0ef          	jal	1002740 <__subdf3>
 1004c18:	000a8613          	mv	a2,s5
 1004c1c:	000b0693          	mv	a3,s6
 1004c20:	b21fd0ef          	jal	1002740 <__subdf3>
 1004c24:	010077b7          	lui	a5,0x1007
 1004c28:	00050613          	mv	a2,a0
 1004c2c:	00058693          	mv	a3,a1
 1004c30:	4807a503          	lw	a0,1152(a5) # 1007480 <halF+0x18>
 1004c34:	4847a583          	lw	a1,1156(a5)
 1004c38:	b09fd0ef          	jal	1002740 <__subdf3>
 1004c3c:	c0300793          	li	a5,-1021
 1004c40:	12fa4a63          	blt	s4,a5,1004d74 <__ieee754_exp+0x550>
 1004c44:	014a1793          	slli	a5,s4,0x14
 1004c48:	00b785b3          	add	a1,a5,a1
 1004c4c:	03012903          	lw	s2,48(sp)
 1004c50:	02c12983          	lw	s3,44(sp)
 1004c54:	02412a83          	lw	s5,36(sp)
 1004c58:	02012b03          	lw	s6,32(sp)
 1004c5c:	01c12b83          	lw	s7,28(sp)
 1004c60:	01812c03          	lw	s8,24(sp)
 1004c64:	00050793          	mv	a5,a0
 1004c68:	03c12083          	lw	ra,60(sp)
 1004c6c:	03812403          	lw	s0,56(sp)
 1004c70:	03412483          	lw	s1,52(sp)
 1004c74:	02812a03          	lw	s4,40(sp)
 1004c78:	00078513          	mv	a0,a5
 1004c7c:	04010113          	addi	sp,sp,64
 1004c80:	00008067          	ret
 1004c84:	3ff0a737          	lui	a4,0x3ff0a
 1004c88:	03212823          	sw	s2,48(sp)
 1004c8c:	03312623          	sw	s3,44(sp)
 1004c90:	03512223          	sw	s5,36(sp)
 1004c94:	03612023          	sw	s6,32(sp)
 1004c98:	01712e23          	sw	s7,28(sp)
 1004c9c:	01812c23          	sw	s8,24(sp)
 1004ca0:	2b170713          	addi	a4,a4,689 # 3ff0a2b1 <__stack_end+0x3eeea2b1>
 1004ca4:	daf762e3          	bltu	a4,a5,1004a48 <__ieee754_exp+0x224>
 1004ca8:	010077b7          	lui	a5,0x1007
 1004cac:	00381413          	slli	s0,a6,0x3
 1004cb0:	45878793          	addi	a5,a5,1112 # 1007458 <ln2HI>
 1004cb4:	008787b3          	add	a5,a5,s0
 1004cb8:	0047a683          	lw	a3,4(a5)
 1004cbc:	0007a603          	lw	a2,0(a5)
 1004cc0:	01012423          	sw	a6,8(sp)
 1004cc4:	a7dfd0ef          	jal	1002740 <__subdf3>
 1004cc8:	010077b7          	lui	a5,0x1007
 1004ccc:	44878793          	addi	a5,a5,1096 # 1007448 <ln2LO>
 1004cd0:	00812803          	lw	a6,8(sp)
 1004cd4:	008787b3          	add	a5,a5,s0
 1004cd8:	0007a683          	lw	a3,0(a5)
 1004cdc:	0047a783          	lw	a5,4(a5)
 1004ce0:	00184713          	xori	a4,a6,1
 1004ce4:	00050a93          	mv	s5,a0
 1004ce8:	00058b13          	mv	s6,a1
 1004cec:	00068b93          	mv	s7,a3
 1004cf0:	00078c13          	mv	s8,a5
 1004cf4:	41070a33          	sub	s4,a4,a6
 1004cf8:	dedff06f          	j	1004ae4 <__ieee754_exp+0x2c0>
 1004cfc:	010077b7          	lui	a5,0x1007
 1004d00:	5307a603          	lw	a2,1328(a5) # 1007530 <halF+0xc8>
 1004d04:	5347a683          	lw	a3,1332(a5)
 1004d08:	01007a37          	lui	s4,0x1007
 1004d0c:	a54fc0ef          	jal	1000f60 <__adddf3>
 1004d10:	480a2603          	lw	a2,1152(s4) # 1007480 <halF+0x18>
 1004d14:	484a2683          	lw	a3,1156(s4)
 1004d18:	9dcfd0ef          	jal	1001ef4 <__gedf2>
 1004d1c:	06a04e63          	bgtz	a0,1004d98 <__ieee754_exp+0x574>
 1004d20:	03212823          	sw	s2,48(sp)
 1004d24:	03312623          	sw	s3,44(sp)
 1004d28:	b81ff06f          	j	10048a8 <__ieee754_exp+0x84>
 1004d2c:	00050613          	mv	a2,a0
 1004d30:	00058693          	mv	a3,a1
 1004d34:	a2cfc0ef          	jal	1000f60 <__adddf3>
 1004d38:	03c12083          	lw	ra,60(sp)
 1004d3c:	03812403          	lw	s0,56(sp)
 1004d40:	00050793          	mv	a5,a0
 1004d44:	03412483          	lw	s1,52(sp)
 1004d48:	02812a03          	lw	s4,40(sp)
 1004d4c:	00078513          	mv	a0,a5
 1004d50:	04010113          	addi	sp,sp,64
 1004d54:	00008067          	ret
 1004d58:	03812403          	lw	s0,56(sp)
 1004d5c:	03c12083          	lw	ra,60(sp)
 1004d60:	03412483          	lw	s1,52(sp)
 1004d64:	02812a03          	lw	s4,40(sp)
 1004d68:	00000513          	li	a0,0
 1004d6c:	04010113          	addi	sp,sp,64
 1004d70:	7f80006f          	j	1005568 <__math_oflow>
 1004d74:	3e8a0793          	addi	a5,s4,1000
 1004d78:	01479793          	slli	a5,a5,0x14
 1004d7c:	00b786b3          	add	a3,a5,a1
 1004d80:	010077b7          	lui	a5,0x1007
 1004d84:	5387a603          	lw	a2,1336(a5) # 1007538 <halF+0xd0>
 1004d88:	00068593          	mv	a1,a3
 1004d8c:	53c7a683          	lw	a3,1340(a5)
 1004d90:	b14fd0ef          	jal	10020a4 <__muldf3>
 1004d94:	eb9ff06f          	j	1004c4c <__ieee754_exp+0x428>
 1004d98:	480a2603          	lw	a2,1152(s4)
 1004d9c:	484a2683          	lw	a3,1156(s4)
 1004da0:	00048513          	mv	a0,s1
 1004da4:	00040593          	mv	a1,s0
 1004da8:	9b8fc0ef          	jal	1000f60 <__adddf3>
 1004dac:	00050793          	mv	a5,a0
 1004db0:	eb9ff06f          	j	1004c68 <__ieee754_exp+0x444>
 1004db4:	03812403          	lw	s0,56(sp)
 1004db8:	03c12083          	lw	ra,60(sp)
 1004dbc:	03412483          	lw	s1,52(sp)
 1004dc0:	02812a03          	lw	s4,40(sp)
 1004dc4:	00000513          	li	a0,0
 1004dc8:	04010113          	addi	sp,sp,64
 1004dcc:	77c0006f          	j	1005548 <__math_uflow>
 1004dd0:	02412a83          	lw	s5,36(sp)
 1004dd4:	02012b03          	lw	s6,32(sp)
 1004dd8:	01c12b83          	lw	s7,28(sp)
 1004ddc:	01812c03          	lw	s8,24(sp)
 1004de0:	01007a37          	lui	s4,0x1007
 1004de4:	b7dff06f          	j	1004960 <__ieee754_exp+0x13c>

01004de8 <__ieee754_log>:
 1004de8:	fc010113          	addi	sp,sp,-64
 1004dec:	02112e23          	sw	ra,60(sp)
 1004df0:	00100837          	lui	a6,0x100
 1004df4:	00058793          	mv	a5,a1
 1004df8:	00050713          	mv	a4,a0
 1004dfc:	1905da63          	bge	a1,a6,1004f90 <__ieee754_log+0x1a8>
 1004e00:	00159693          	slli	a3,a1,0x1
 1004e04:	0016d693          	srli	a3,a3,0x1
 1004e08:	00a6e6b3          	or	a3,a3,a0
 1004e0c:	40068a63          	beqz	a3,1005220 <__ieee754_log+0x438>
 1004e10:	5005c263          	bltz	a1,1005314 <__ieee754_log+0x52c>
 1004e14:	010077b7          	lui	a5,0x1007
 1004e18:	5487a603          	lw	a2,1352(a5) # 1007548 <halF+0xe0>
 1004e1c:	54c7a683          	lw	a3,1356(a5)
 1004e20:	a84fd0ef          	jal	10020a4 <__muldf3>
 1004e24:	00058693          	mv	a3,a1
 1004e28:	7ff00637          	lui	a2,0x7ff00
 1004e2c:	00058793          	mv	a5,a1
 1004e30:	00050713          	mv	a4,a0
 1004e34:	fca00313          	li	t1,-54
 1004e38:	16c6d463          	bge	a3,a2,1004fa0 <__ieee754_log+0x1b8>
 1004e3c:	001007b7          	lui	a5,0x100
 1004e40:	fff78893          	addi	a7,a5,-1 # fffff <__heap_size+0xfefff>
 1004e44:	00096837          	lui	a6,0x96
 1004e48:	02812c23          	sw	s0,56(sp)
 1004e4c:	f6480813          	addi	a6,a6,-156 # 95f64 <__heap_size+0x94f64>
 1004e50:	0116f433          	and	s0,a3,a7
 1004e54:	01040833          	add	a6,s0,a6
 1004e58:	00f87833          	and	a6,a6,a5
 1004e5c:	3ff007b7          	lui	a5,0x3ff00
 1004e60:	00f847b3          	xor	a5,a6,a5
 1004e64:	00070513          	mv	a0,a4
 1004e68:	01007737          	lui	a4,0x1007
 1004e6c:	48072603          	lw	a2,1152(a4) # 1007480 <halF+0x18>
 1004e70:	0087e5b3          	or	a1,a5,s0
 1004e74:	4146d793          	srai	a5,a3,0x14
 1004e78:	48472683          	lw	a3,1156(a4)
 1004e7c:	c0178793          	addi	a5,a5,-1023 # 3feffc01 <__stack_end+0x3eedfc01>
 1004e80:	006787b3          	add	a5,a5,t1
 1004e84:	41485813          	srai	a6,a6,0x14
 1004e88:	03612023          	sw	s6,32(sp)
 1004e8c:	01712e23          	sw	s7,28(sp)
 1004e90:	01a12823          	sw	s10,16(sp)
 1004e94:	00f80d33          	add	s10,a6,a5
 1004e98:	8a9fd0ef          	jal	1002740 <__subdf3>
 1004e9c:	00100737          	lui	a4,0x100
 1004ea0:	fff70893          	addi	a7,a4,-1 # fffff <__heap_size+0xfefff>
 1004ea4:	00240793          	addi	a5,s0,2
 1004ea8:	0117f7b3          	and	a5,a5,a7
 1004eac:	00200713          	li	a4,2
 1004eb0:	00050b13          	mv	s6,a0
 1004eb4:	00058b93          	mv	s7,a1
 1004eb8:	10f74c63          	blt	a4,a5,1004fd0 <__ieee754_log+0x1e8>
 1004ebc:	00000613          	li	a2,0
 1004ec0:	00000693          	li	a3,0
 1004ec4:	fadfc0ef          	jal	1001e70 <__eqdf2>
 1004ec8:	38050663          	beqz	a0,1005254 <__ieee754_log+0x46c>
 1004ecc:	010077b7          	lui	a5,0x1007
 1004ed0:	5507a603          	lw	a2,1360(a5) # 1007550 <halF+0xe8>
 1004ed4:	5547a683          	lw	a3,1364(a5)
 1004ed8:	000b0513          	mv	a0,s6
 1004edc:	000b8593          	mv	a1,s7
 1004ee0:	02912a23          	sw	s1,52(sp)
 1004ee4:	03212823          	sw	s2,48(sp)
 1004ee8:	03312623          	sw	s3,44(sp)
 1004eec:	9b8fd0ef          	jal	10020a4 <__muldf3>
 1004ef0:	010077b7          	lui	a5,0x1007
 1004ef4:	00050613          	mv	a2,a0
 1004ef8:	00058693          	mv	a3,a1
 1004efc:	4b07a503          	lw	a0,1200(a5) # 10074b0 <halF+0x48>
 1004f00:	4b47a583          	lw	a1,1204(a5)
 1004f04:	000b0413          	mv	s0,s6
 1004f08:	000b8493          	mv	s1,s7
 1004f0c:	835fd0ef          	jal	1002740 <__subdf3>
 1004f10:	00050913          	mv	s2,a0
 1004f14:	00058993          	mv	s3,a1
 1004f18:	000b0613          	mv	a2,s6
 1004f1c:	000b8693          	mv	a3,s7
 1004f20:	000b0513          	mv	a0,s6
 1004f24:	000b8593          	mv	a1,s7
 1004f28:	97cfd0ef          	jal	10020a4 <__muldf3>
 1004f2c:	00050613          	mv	a2,a0
 1004f30:	00058693          	mv	a3,a1
 1004f34:	00090513          	mv	a0,s2
 1004f38:	00098593          	mv	a1,s3
 1004f3c:	968fd0ef          	jal	10020a4 <__muldf3>
 1004f40:	460d1c63          	bnez	s10,10053b8 <__ieee754_log+0x5d0>
 1004f44:	00050613          	mv	a2,a0
 1004f48:	00058693          	mv	a3,a1
 1004f4c:	00040513          	mv	a0,s0
 1004f50:	00048593          	mv	a1,s1
 1004f54:	fecfd0ef          	jal	1002740 <__subdf3>
 1004f58:	03812403          	lw	s0,56(sp)
 1004f5c:	03c12083          	lw	ra,60(sp)
 1004f60:	00050713          	mv	a4,a0
 1004f64:	00058793          	mv	a5,a1
 1004f68:	03412483          	lw	s1,52(sp)
 1004f6c:	03012903          	lw	s2,48(sp)
 1004f70:	02c12983          	lw	s3,44(sp)
 1004f74:	02012b03          	lw	s6,32(sp)
 1004f78:	01c12b83          	lw	s7,28(sp)
 1004f7c:	01012d03          	lw	s10,16(sp)
 1004f80:	00070513          	mv	a0,a4
 1004f84:	00078593          	mv	a1,a5
 1004f88:	04010113          	addi	sp,sp,64
 1004f8c:	00008067          	ret
 1004f90:	00058693          	mv	a3,a1
 1004f94:	7ff00637          	lui	a2,0x7ff00
 1004f98:	00000313          	li	t1,0
 1004f9c:	eac6c0e3          	blt	a3,a2,1004e3c <__ieee754_log+0x54>
 1004fa0:	00070613          	mv	a2,a4
 1004fa4:	00070513          	mv	a0,a4
 1004fa8:	00078693          	mv	a3,a5
 1004fac:	00078593          	mv	a1,a5
 1004fb0:	fb1fb0ef          	jal	1000f60 <__adddf3>
 1004fb4:	00050713          	mv	a4,a0
 1004fb8:	00058793          	mv	a5,a1
 1004fbc:	03c12083          	lw	ra,60(sp)
 1004fc0:	00070513          	mv	a0,a4
 1004fc4:	00078593          	mv	a1,a5
 1004fc8:	04010113          	addi	sp,sp,64
 1004fcc:	00008067          	ret
 1004fd0:	010077b7          	lui	a5,0x1007
 1004fd4:	4907a603          	lw	a2,1168(a5) # 1007490 <halF+0x28>
 1004fd8:	4947a683          	lw	a3,1172(a5)
 1004fdc:	03212823          	sw	s2,48(sp)
 1004fe0:	03312623          	sw	s3,44(sp)
 1004fe4:	03412423          	sw	s4,40(sp)
 1004fe8:	03512223          	sw	s5,36(sp)
 1004fec:	01812c23          	sw	s8,24(sp)
 1004ff0:	01912a23          	sw	s9,20(sp)
 1004ff4:	f6dfb0ef          	jal	1000f60 <__adddf3>
 1004ff8:	00050613          	mv	a2,a0
 1004ffc:	00058693          	mv	a3,a1
 1005000:	000b0513          	mv	a0,s6
 1005004:	000b8593          	mv	a1,s7
 1005008:	ea4fc0ef          	jal	10016ac <__divdf3>
 100500c:	00050a13          	mv	s4,a0
 1005010:	000d0513          	mv	a0,s10
 1005014:	00058a93          	mv	s5,a1
 1005018:	f4dfd0ef          	jal	1002f64 <__floatsidf>
 100501c:	00a12423          	sw	a0,8(sp)
 1005020:	00b12623          	sw	a1,12(sp)
 1005024:	000a0613          	mv	a2,s4
 1005028:	000a8693          	mv	a3,s5
 100502c:	000a0513          	mv	a0,s4
 1005030:	000a8593          	mv	a1,s5
 1005034:	870fd0ef          	jal	10020a4 <__muldf3>
 1005038:	fff9f837          	lui	a6,0xfff9f
 100503c:	b8680813          	addi	a6,a6,-1146 # fff9eb86 <__stack_end+0xfef7eb86>
 1005040:	01040833          	add	a6,s0,a6
 1005044:	00050613          	mv	a2,a0
 1005048:	00058693          	mv	a3,a1
 100504c:	01012023          	sw	a6,0(sp)
 1005050:	00050c13          	mv	s8,a0
 1005054:	00058c93          	mv	s9,a1
 1005058:	84cfd0ef          	jal	10020a4 <__muldf3>
 100505c:	010077b7          	lui	a5,0x1007
 1005060:	5587a603          	lw	a2,1368(a5) # 1007558 <halF+0xf0>
 1005064:	55c7a683          	lw	a3,1372(a5)
 1005068:	00050913          	mv	s2,a0
 100506c:	00058993          	mv	s3,a1
 1005070:	834fd0ef          	jal	10020a4 <__muldf3>
 1005074:	010077b7          	lui	a5,0x1007
 1005078:	5607a603          	lw	a2,1376(a5) # 1007560 <halF+0xf8>
 100507c:	5647a683          	lw	a3,1380(a5)
 1005080:	ee1fb0ef          	jal	1000f60 <__adddf3>
 1005084:	00090613          	mv	a2,s2
 1005088:	00098693          	mv	a3,s3
 100508c:	818fd0ef          	jal	10020a4 <__muldf3>
 1005090:	010077b7          	lui	a5,0x1007
 1005094:	5687a603          	lw	a2,1384(a5) # 1007568 <halF+0x100>
 1005098:	56c7a683          	lw	a3,1388(a5)
 100509c:	ec5fb0ef          	jal	1000f60 <__adddf3>
 10050a0:	00090613          	mv	a2,s2
 10050a4:	00098693          	mv	a3,s3
 10050a8:	ffdfc0ef          	jal	10020a4 <__muldf3>
 10050ac:	010077b7          	lui	a5,0x1007
 10050b0:	5707a603          	lw	a2,1392(a5) # 1007570 <halF+0x108>
 10050b4:	5747a683          	lw	a3,1396(a5)
 10050b8:	ea9fb0ef          	jal	1000f60 <__adddf3>
 10050bc:	000c0613          	mv	a2,s8
 10050c0:	000c8693          	mv	a3,s9
 10050c4:	fe1fc0ef          	jal	10020a4 <__muldf3>
 10050c8:	010077b7          	lui	a5,0x1007
 10050cc:	5787a603          	lw	a2,1400(a5) # 1007578 <halF+0x110>
 10050d0:	57c7a683          	lw	a3,1404(a5)
 10050d4:	00050c13          	mv	s8,a0
 10050d8:	00058c93          	mv	s9,a1
 10050dc:	00090513          	mv	a0,s2
 10050e0:	00098593          	mv	a1,s3
 10050e4:	fc1fc0ef          	jal	10020a4 <__muldf3>
 10050e8:	010077b7          	lui	a5,0x1007
 10050ec:	5807a603          	lw	a2,1408(a5) # 1007580 <halF+0x118>
 10050f0:	5847a683          	lw	a3,1412(a5)
 10050f4:	e6dfb0ef          	jal	1000f60 <__adddf3>
 10050f8:	00090613          	mv	a2,s2
 10050fc:	00098693          	mv	a3,s3
 1005100:	fa5fc0ef          	jal	10020a4 <__muldf3>
 1005104:	010077b7          	lui	a5,0x1007
 1005108:	5887a603          	lw	a2,1416(a5) # 1007588 <halF+0x120>
 100510c:	58c7a683          	lw	a3,1420(a5)
 1005110:	e51fb0ef          	jal	1000f60 <__adddf3>
 1005114:	00090613          	mv	a2,s2
 1005118:	00098693          	mv	a3,s3
 100511c:	f89fc0ef          	jal	10020a4 <__muldf3>
 1005120:	00058693          	mv	a3,a1
 1005124:	00050613          	mv	a2,a0
 1005128:	000c8593          	mv	a1,s9
 100512c:	000c0513          	mv	a0,s8
 1005130:	e31fb0ef          	jal	1000f60 <__adddf3>
 1005134:	00012803          	lw	a6,0(sp)
 1005138:	0006c6b7          	lui	a3,0x6c
 100513c:	85168693          	addi	a3,a3,-1967 # 6b851 <__heap_size+0x6a851>
 1005140:	408686b3          	sub	a3,a3,s0
 1005144:	0106e6b3          	or	a3,a3,a6
 1005148:	16d05e63          	blez	a3,10052c4 <__ieee754_log+0x4dc>
 100514c:	010076b7          	lui	a3,0x1007
 1005150:	4b06a603          	lw	a2,1200(a3) # 10074b0 <halF+0x48>
 1005154:	4b46a683          	lw	a3,1204(a3)
 1005158:	00a12023          	sw	a0,0(sp)
 100515c:	00b12223          	sw	a1,4(sp)
 1005160:	000b0513          	mv	a0,s6
 1005164:	000b8593          	mv	a1,s7
 1005168:	f3dfc0ef          	jal	10020a4 <__muldf3>
 100516c:	000b0613          	mv	a2,s6
 1005170:	000b8693          	mv	a3,s7
 1005174:	f31fc0ef          	jal	10020a4 <__muldf3>
 1005178:	00012703          	lw	a4,0(sp)
 100517c:	00412783          	lw	a5,4(sp)
 1005180:	00050613          	mv	a2,a0
 1005184:	00058693          	mv	a3,a1
 1005188:	00050913          	mv	s2,a0
 100518c:	00058993          	mv	s3,a1
 1005190:	00050c13          	mv	s8,a0
 1005194:	00058c93          	mv	s9,a1
 1005198:	00070513          	mv	a0,a4
 100519c:	00078593          	mv	a1,a5
 10051a0:	dc1fb0ef          	jal	1000f60 <__adddf3>
 10051a4:	000a0613          	mv	a2,s4
 10051a8:	000a8693          	mv	a3,s5
 10051ac:	ef9fc0ef          	jal	10020a4 <__muldf3>
 10051b0:	160d1a63          	bnez	s10,1005324 <__ieee754_log+0x53c>
 10051b4:	00050613          	mv	a2,a0
 10051b8:	00058693          	mv	a3,a1
 10051bc:	00090513          	mv	a0,s2
 10051c0:	00098593          	mv	a1,s3
 10051c4:	d7cfd0ef          	jal	1002740 <__subdf3>
 10051c8:	00050613          	mv	a2,a0
 10051cc:	00058693          	mv	a3,a1
 10051d0:	000b0513          	mv	a0,s6
 10051d4:	000b8593          	mv	a1,s7
 10051d8:	d68fd0ef          	jal	1002740 <__subdf3>
 10051dc:	03812403          	lw	s0,56(sp)
 10051e0:	00050713          	mv	a4,a0
 10051e4:	00058793          	mv	a5,a1
 10051e8:	03c12083          	lw	ra,60(sp)
 10051ec:	03012903          	lw	s2,48(sp)
 10051f0:	02c12983          	lw	s3,44(sp)
 10051f4:	02812a03          	lw	s4,40(sp)
 10051f8:	02412a83          	lw	s5,36(sp)
 10051fc:	02012b03          	lw	s6,32(sp)
 1005200:	01c12b83          	lw	s7,28(sp)
 1005204:	01812c03          	lw	s8,24(sp)
 1005208:	01412c83          	lw	s9,20(sp)
 100520c:	01012d03          	lw	s10,16(sp)
 1005210:	00070513          	mv	a0,a4
 1005214:	00078593          	mv	a1,a5
 1005218:	04010113          	addi	sp,sp,64
 100521c:	00008067          	ret
 1005220:	010077b7          	lui	a5,0x1007
 1005224:	5407a503          	lw	a0,1344(a5) # 1007540 <halF+0xd8>
 1005228:	5447a583          	lw	a1,1348(a5)
 100522c:	00000613          	li	a2,0
 1005230:	00000693          	li	a3,0
 1005234:	c78fc0ef          	jal	10016ac <__divdf3>
 1005238:	03c12083          	lw	ra,60(sp)
 100523c:	00050713          	mv	a4,a0
 1005240:	00058793          	mv	a5,a1
 1005244:	00070513          	mv	a0,a4
 1005248:	00078593          	mv	a1,a5
 100524c:	04010113          	addi	sp,sp,64
 1005250:	00008067          	ret
 1005254:	00000713          	li	a4,0
 1005258:	00000793          	li	a5,0
 100525c:	1c0d0c63          	beqz	s10,1005434 <__ieee754_log+0x64c>
 1005260:	000d0513          	mv	a0,s10
 1005264:	02912a23          	sw	s1,52(sp)
 1005268:	03212823          	sw	s2,48(sp)
 100526c:	03312623          	sw	s3,44(sp)
 1005270:	cf5fd0ef          	jal	1002f64 <__floatsidf>
 1005274:	010077b7          	lui	a5,0x1007
 1005278:	4f87a603          	lw	a2,1272(a5) # 10074f8 <halF+0x90>
 100527c:	4fc7a683          	lw	a3,1276(a5)
 1005280:	00050913          	mv	s2,a0
 1005284:	00058993          	mv	s3,a1
 1005288:	e1dfc0ef          	jal	10020a4 <__muldf3>
 100528c:	010077b7          	lui	a5,0x1007
 1005290:	5007a603          	lw	a2,1280(a5) # 1007500 <halF+0x98>
 1005294:	5047a683          	lw	a3,1284(a5)
 1005298:	00050413          	mv	s0,a0
 100529c:	00058493          	mv	s1,a1
 10052a0:	00090513          	mv	a0,s2
 10052a4:	00098593          	mv	a1,s3
 10052a8:	dfdfc0ef          	jal	10020a4 <__muldf3>
 10052ac:	00050613          	mv	a2,a0
 10052b0:	00058693          	mv	a3,a1
 10052b4:	00040513          	mv	a0,s0
 10052b8:	00048593          	mv	a1,s1
 10052bc:	ca5fb0ef          	jal	1000f60 <__adddf3>
 10052c0:	c99ff06f          	j	1004f58 <__ieee754_log+0x170>
 10052c4:	00050613          	mv	a2,a0
 10052c8:	00058693          	mv	a3,a1
 10052cc:	000b0513          	mv	a0,s6
 10052d0:	000b8593          	mv	a1,s7
 10052d4:	02912a23          	sw	s1,52(sp)
 10052d8:	c68fd0ef          	jal	1002740 <__subdf3>
 10052dc:	000a0613          	mv	a2,s4
 10052e0:	000a8693          	mv	a3,s5
 10052e4:	dc1fc0ef          	jal	10020a4 <__muldf3>
 10052e8:	160d1063          	bnez	s10,1005448 <__ieee754_log+0x660>
 10052ec:	00050613          	mv	a2,a0
 10052f0:	00058693          	mv	a3,a1
 10052f4:	000b0513          	mv	a0,s6
 10052f8:	000b8593          	mv	a1,s7
 10052fc:	c44fd0ef          	jal	1002740 <__subdf3>
 1005300:	00050713          	mv	a4,a0
 1005304:	03812403          	lw	s0,56(sp)
 1005308:	03412483          	lw	s1,52(sp)
 100530c:	00058793          	mv	a5,a1
 1005310:	ed9ff06f          	j	10051e8 <__ieee754_log+0x400>
 1005314:	00050613          	mv	a2,a0
 1005318:	00058693          	mv	a3,a1
 100531c:	c24fd0ef          	jal	1002740 <__subdf3>
 1005320:	f0dff06f          	j	100522c <__ieee754_log+0x444>
 1005324:	00812403          	lw	s0,8(sp)
 1005328:	02912a23          	sw	s1,52(sp)
 100532c:	010076b7          	lui	a3,0x1007
 1005330:	00c12483          	lw	s1,12(sp)
 1005334:	4f86a603          	lw	a2,1272(a3) # 10074f8 <halF+0x90>
 1005338:	4fc6a683          	lw	a3,1276(a3)
 100533c:	00a12023          	sw	a0,0(sp)
 1005340:	00b12223          	sw	a1,4(sp)
 1005344:	00040513          	mv	a0,s0
 1005348:	00048593          	mv	a1,s1
 100534c:	d59fc0ef          	jal	10020a4 <__muldf3>
 1005350:	010076b7          	lui	a3,0x1007
 1005354:	5006a603          	lw	a2,1280(a3) # 1007500 <halF+0x98>
 1005358:	5046a683          	lw	a3,1284(a3)
 100535c:	00050913          	mv	s2,a0
 1005360:	00058993          	mv	s3,a1
 1005364:	00040513          	mv	a0,s0
 1005368:	00048593          	mv	a1,s1
 100536c:	d39fc0ef          	jal	10020a4 <__muldf3>
 1005370:	00012703          	lw	a4,0(sp)
 1005374:	00412783          	lw	a5,4(sp)
 1005378:	00070613          	mv	a2,a4
 100537c:	00078693          	mv	a3,a5
 1005380:	be1fb0ef          	jal	1000f60 <__adddf3>
 1005384:	00050613          	mv	a2,a0
 1005388:	00058693          	mv	a3,a1
 100538c:	000c0513          	mv	a0,s8
 1005390:	000c8593          	mv	a1,s9
 1005394:	bacfd0ef          	jal	1002740 <__subdf3>
 1005398:	000b0613          	mv	a2,s6
 100539c:	000b8693          	mv	a3,s7
 10053a0:	ba0fd0ef          	jal	1002740 <__subdf3>
 10053a4:	00050613          	mv	a2,a0
 10053a8:	00058693          	mv	a3,a1
 10053ac:	00090513          	mv	a0,s2
 10053b0:	00098593          	mv	a1,s3
 10053b4:	f49ff06f          	j	10052fc <__ieee754_log+0x514>
 10053b8:	00a12023          	sw	a0,0(sp)
 10053bc:	000d0513          	mv	a0,s10
 10053c0:	00b12223          	sw	a1,4(sp)
 10053c4:	ba1fd0ef          	jal	1002f64 <__floatsidf>
 10053c8:	010076b7          	lui	a3,0x1007
 10053cc:	4f86a603          	lw	a2,1272(a3) # 10074f8 <halF+0x90>
 10053d0:	4fc6a683          	lw	a3,1276(a3)
 10053d4:	00050913          	mv	s2,a0
 10053d8:	00058993          	mv	s3,a1
 10053dc:	cc9fc0ef          	jal	10020a4 <__muldf3>
 10053e0:	010076b7          	lui	a3,0x1007
 10053e4:	5006a603          	lw	a2,1280(a3) # 1007500 <halF+0x98>
 10053e8:	5046a683          	lw	a3,1284(a3)
 10053ec:	00050413          	mv	s0,a0
 10053f0:	00058493          	mv	s1,a1
 10053f4:	00090513          	mv	a0,s2
 10053f8:	00098593          	mv	a1,s3
 10053fc:	ca9fc0ef          	jal	10020a4 <__muldf3>
 1005400:	00012703          	lw	a4,0(sp)
 1005404:	00412783          	lw	a5,4(sp)
 1005408:	00050613          	mv	a2,a0
 100540c:	00058693          	mv	a3,a1
 1005410:	00070513          	mv	a0,a4
 1005414:	00078593          	mv	a1,a5
 1005418:	b28fd0ef          	jal	1002740 <__subdf3>
 100541c:	000b0613          	mv	a2,s6
 1005420:	000b8693          	mv	a3,s7
 1005424:	b1cfd0ef          	jal	1002740 <__subdf3>
 1005428:	00050613          	mv	a2,a0
 100542c:	00058693          	mv	a3,a1
 1005430:	b1dff06f          	j	1004f4c <__ieee754_log+0x164>
 1005434:	03812403          	lw	s0,56(sp)
 1005438:	02012b03          	lw	s6,32(sp)
 100543c:	01c12b83          	lw	s7,28(sp)
 1005440:	01012d03          	lw	s10,16(sp)
 1005444:	b79ff06f          	j	1004fbc <__ieee754_log+0x1d4>
 1005448:	00812403          	lw	s0,8(sp)
 100544c:	00c12483          	lw	s1,12(sp)
 1005450:	010076b7          	lui	a3,0x1007
 1005454:	4f86a603          	lw	a2,1272(a3) # 10074f8 <halF+0x90>
 1005458:	4fc6a683          	lw	a3,1276(a3)
 100545c:	00a12023          	sw	a0,0(sp)
 1005460:	00b12223          	sw	a1,4(sp)
 1005464:	00040513          	mv	a0,s0
 1005468:	00048593          	mv	a1,s1
 100546c:	c39fc0ef          	jal	10020a4 <__muldf3>
 1005470:	010076b7          	lui	a3,0x1007
 1005474:	5006a603          	lw	a2,1280(a3) # 1007500 <halF+0x98>
 1005478:	5046a683          	lw	a3,1284(a3)
 100547c:	00050913          	mv	s2,a0
 1005480:	00058993          	mv	s3,a1
 1005484:	00040513          	mv	a0,s0
 1005488:	00048593          	mv	a1,s1
 100548c:	c19fc0ef          	jal	10020a4 <__muldf3>
 1005490:	00012703          	lw	a4,0(sp)
 1005494:	00412783          	lw	a5,4(sp)
 1005498:	00050613          	mv	a2,a0
 100549c:	00058693          	mv	a3,a1
 10054a0:	00070513          	mv	a0,a4
 10054a4:	00078593          	mv	a1,a5
 10054a8:	eedff06f          	j	1005394 <__ieee754_log+0x5ac>

010054ac <with_errno>:
 10054ac:	fe010113          	addi	sp,sp,-32
 10054b0:	00812c23          	sw	s0,24(sp)
 10054b4:	00912a23          	sw	s1,20(sp)
 10054b8:	00112e23          	sw	ra,28(sp)
 10054bc:	00050413          	mv	s0,a0
 10054c0:	00058493          	mv	s1,a1
 10054c4:	00c12623          	sw	a2,12(sp)
 10054c8:	2c0000ef          	jal	1005788 <__errno>
 10054cc:	00c12603          	lw	a2,12(sp)
 10054d0:	01c12083          	lw	ra,28(sp)
 10054d4:	00048593          	mv	a1,s1
 10054d8:	00c52023          	sw	a2,0(a0)
 10054dc:	00040513          	mv	a0,s0
 10054e0:	01812403          	lw	s0,24(sp)
 10054e4:	01412483          	lw	s1,20(sp)
 10054e8:	02010113          	addi	sp,sp,32
 10054ec:	00008067          	ret

010054f0 <xflow>:
 10054f0:	fe010113          	addi	sp,sp,-32
 10054f4:	00112e23          	sw	ra,28(sp)
 10054f8:	04050263          	beqz	a0,100553c <xflow+0x4c>
 10054fc:	800006b7          	lui	a3,0x80000
 1005500:	00058713          	mv	a4,a1
 1005504:	00d647b3          	xor	a5,a2,a3
 1005508:	00e12423          	sw	a4,8(sp)
 100550c:	00f12623          	sw	a5,12(sp)
 1005510:	00812303          	lw	t1,8(sp)
 1005514:	00c12383          	lw	t2,12(sp)
 1005518:	00058513          	mv	a0,a1
 100551c:	00060593          	mv	a1,a2
 1005520:	00038693          	mv	a3,t2
 1005524:	00030613          	mv	a2,t1
 1005528:	b7dfc0ef          	jal	10020a4 <__muldf3>
 100552c:	01c12083          	lw	ra,28(sp)
 1005530:	02200613          	li	a2,34
 1005534:	02010113          	addi	sp,sp,32
 1005538:	f75ff06f          	j	10054ac <with_errno>
 100553c:	00058713          	mv	a4,a1
 1005540:	00060793          	mv	a5,a2
 1005544:	fc5ff06f          	j	1005508 <xflow+0x18>

01005548 <__math_uflow>:
 1005548:	010077b7          	lui	a5,0x1007
 100554c:	5907a583          	lw	a1,1424(a5) # 1007590 <halF+0x128>
 1005550:	5947a603          	lw	a2,1428(a5)
 1005554:	f9dff06f          	j	10054f0 <xflow>

01005558 <__math_may_uflow>:
 1005558:	010077b7          	lui	a5,0x1007
 100555c:	5987a583          	lw	a1,1432(a5) # 1007598 <halF+0x130>
 1005560:	59c7a603          	lw	a2,1436(a5)
 1005564:	f8dff06f          	j	10054f0 <xflow>

01005568 <__math_oflow>:
 1005568:	010077b7          	lui	a5,0x1007
 100556c:	5a07a583          	lw	a1,1440(a5) # 10075a0 <halF+0x138>
 1005570:	5a47a603          	lw	a2,1444(a5)
 1005574:	f7dff06f          	j	10054f0 <xflow>

01005578 <__math_divzero>:
 1005578:	fe010113          	addi	sp,sp,-32
 100557c:	00112e23          	sw	ra,28(sp)
 1005580:	02050e63          	beqz	a0,10055bc <__math_divzero+0x44>
 1005584:	010077b7          	lui	a5,0x1007
 1005588:	4787a703          	lw	a4,1144(a5) # 1007478 <halF+0x10>
 100558c:	47c7a783          	lw	a5,1148(a5)
 1005590:	00e12423          	sw	a4,8(sp)
 1005594:	00f12623          	sw	a5,12(sp)
 1005598:	00812503          	lw	a0,8(sp)
 100559c:	00c12583          	lw	a1,12(sp)
 10055a0:	00000613          	li	a2,0
 10055a4:	00000693          	li	a3,0
 10055a8:	904fc0ef          	jal	10016ac <__divdf3>
 10055ac:	01c12083          	lw	ra,28(sp)
 10055b0:	02200613          	li	a2,34
 10055b4:	02010113          	addi	sp,sp,32
 10055b8:	ef5ff06f          	j	10054ac <with_errno>
 10055bc:	010077b7          	lui	a5,0x1007
 10055c0:	4807a703          	lw	a4,1152(a5) # 1007480 <halF+0x18>
 10055c4:	4847a783          	lw	a5,1156(a5)
 10055c8:	fc9ff06f          	j	1005590 <__math_divzero+0x18>

010055cc <__math_invalid>:
 10055cc:	fe010113          	addi	sp,sp,-32
 10055d0:	00050613          	mv	a2,a0
 10055d4:	00058693          	mv	a3,a1
 10055d8:	00112e23          	sw	ra,28(sp)
 10055dc:	00812c23          	sw	s0,24(sp)
 10055e0:	00912a23          	sw	s1,20(sp)
 10055e4:	01212823          	sw	s2,16(sp)
 10055e8:	01312623          	sw	s3,12(sp)
 10055ec:	00050413          	mv	s0,a0
 10055f0:	00058493          	mv	s1,a1
 10055f4:	94cfd0ef          	jal	1002740 <__subdf3>
 10055f8:	00050613          	mv	a2,a0
 10055fc:	00058693          	mv	a3,a1
 1005600:	8acfc0ef          	jal	10016ac <__divdf3>
 1005604:	00050913          	mv	s2,a0
 1005608:	00058993          	mv	s3,a1
 100560c:	00040613          	mv	a2,s0
 1005610:	00048693          	mv	a3,s1
 1005614:	00040513          	mv	a0,s0
 1005618:	00048593          	mv	a1,s1
 100561c:	885fd0ef          	jal	1002ea0 <__unorddf2>
 1005620:	02051663          	bnez	a0,100564c <__math_invalid+0x80>
 1005624:	01812403          	lw	s0,24(sp)
 1005628:	01c12083          	lw	ra,28(sp)
 100562c:	01412483          	lw	s1,20(sp)
 1005630:	00090513          	mv	a0,s2
 1005634:	00098593          	mv	a1,s3
 1005638:	01012903          	lw	s2,16(sp)
